

Microchip MPLAB XC8 Assembler V2.32 build 20210201212658 
                                                                                               Thu Oct 28 20:29:06 2021

Microchip MPLAB XC8 C Compiler v2.32 (Free license) build 20210201212658 Og1 
     1                           	processor	18F57Q43
     2                           	fnconf	rparam,??,?,0
     3                           	pagewidth 120
     4                           	opt	flic
     5                           	psect	idataBANK5,global,class=CODE,delta=1,noexec
     6                           	psect	nvBANK5,global,class=BANK5,space=1,delta=1,lowdata,noexec
     7                           	psect	cinit,global,reloc=2,class=CODE,delta=1
     8                           	psect	bssBANK5,global,class=BANK5,space=1,delta=1,lowdata,noexec
     9                           	psect	dataBANK5,global,class=BANK5,space=1,delta=1,lowdata,noexec
    10                           	psect	cstackBANK5,global,class=BANK5,space=1,delta=1,lowdata,noexec
    11                           	psect	cstackCOMRAM,global,class=COMRAM,space=1,delta=1,lowdata,noexec
    12                           	psect	text0,global,reloc=2,class=CODE,delta=1
    13                           	psect	text1,global,reloc=2,class=CODE,delta=1,group=1
    14                           	psect	text2,global,reloc=2,class=CODE,delta=1,group=1
    15                           	psect	text3,global,reloc=2,class=CODE,delta=1,group=1
    16                           	psect	text4,global,reloc=2,class=CODE,delta=1,group=1
    17                           	psect	text5,global,reloc=2,class=CODE,delta=1,group=1
    18                           	psect	text6,global,reloc=2,class=CODE,delta=1,group=1
    19                           	psect	text7,global,reloc=2,class=CODE,delta=1,group=1
    20                           	psect	text8,global,reloc=2,class=CODE,delta=1,group=1
    21                           	psect	text9,global,reloc=2,class=CODE,delta=1
    22                           	psect	text10,global,reloc=2,class=CODE,delta=1
    23                           	psect	text11,global,reloc=2,class=CODE,delta=1
    24                           	psect	text12,global,reloc=2,class=CODE,delta=1
    25                           	psect	text13,global,reloc=2,class=CODE,delta=1
    26                           	psect	text14,global,reloc=2,class=CODE,delta=1
    27                           	psect	text15,global,reloc=2,class=CODE,delta=1
    28                           	psect	text16,global,reloc=2,class=CODE,delta=1
    29                           	psect	text17,global,reloc=4,class=CODE,delta=1
    30                           	psect	text18,global,reloc=4,class=CODE,delta=1
    31                           	psect	ivt0x200,global,reloc=2,class=CODE,delta=1,noexec,keep,optim=
    32                           	psect	intsave_regs,global,class=BIGRAM,space=1,delta=1,noexec
    33                           	psect	rparam,global,class=COMRAM,space=1,delta=1,noexec
    34                           	psect	idloc,global,abs,ovrld,class=IDLOC,space=5,delta=1,noexec
    35                           	psect	config,global,abs,ovrld,class=CONFIG,space=4,delta=1,noexec
    36  0000                     
    37                           ; Version 2.35
    38                           ; Generated 04/06/2021 GMT
    39                           ; 
    40                           ; Copyright © 2021, Microchip Technology Inc. and its subsidiaries ("Microchip")
    41                           ; All rights reserved.
    42                           ; 
    43                           ; This software is developed by Microchip Technology Inc. and its subsidiaries ("Microch
      +                          ip").
    44                           ; 
    45                           ; Redistribution and use in source and binary forms, with or without modification, are
    46                           ; permitted provided that the following conditions are met:
    47                           ; 
    48                           ;     1. Redistributions of source code must retain the above copyright notice, this lis
      +                          t of
    49                           ;        conditions and the following disclaimer.
    50                           ; 
    51                           ;     2. Redistributions in binary form must reproduce the above copyright notice, this 
      +                          list
    52                           ;        of conditions and the following disclaimer in the documentation and/or other
    53                           ;        materials provided with the distribution. Publication is not required when
    54                           ;        this file is used in an embedded application.
    55                           ; 
    56                           ;     3. Microchip's name may not be used to endorse or promote products derived from th
      +                          is
    57                           ;        software without specific prior written permission.
    58                           ; 
    59                           ; THIS SOFTWARE IS PROVIDED BY MICROCHIP "AS IS" AND ANY EXPRESS OR IMPLIED WARRANTIES,
    60                           ; INCLUDING, BUT NOT LIMITED TO, THE IMPLIED WARRANTIES OF MERCHANTABILITY AND FITNESS F
      +                          OR
    61                           ; PURPOSE ARE DISCLAIMED.  IN NO EVENT SHALL MICROCHIP BE LIABLE FOR ANY DIRECT, INDIREC
      +                          T,
    62                           ; INCIDENTAL, SPECIAL, EXEMPLARY, OR CONSEQUENTIAL DAMAGES (INCLUDING BUT NOT LIMITED TO
    63                           ; PROCUREMENT OF SUBSTITUTE GOODS OR SERVICES; LOSS OF USE, DATA OR PROFITS; OR BUSINESS
    64                           ; INTERRUPTION) HOWSOEVER CAUSED AND ON ANY THEORY OF LIABILITY, WHETHER IN CONTRACT, ST
      +                          RICT
    65                           ; LIABILITY, OR TORT (INCLUDING NEGLIGENCE OR OTHERWISE) ARISING IN ANY WAY OUT OF THE U
      +                          SE OF
    66                           ; THIS SOFTWARE, EVEN IF ADVISED OF THE POSSIBILITY OF SUCH DAMAGE.
    67                           ; 
    68                           ; 
    69                           ; Code-generator required, PIC18F57Q43 Definitions
    70                           ; 
    71                           ; SFR Addresses
    72  0000                     
    73                           	psect	idataBANK5
    74  001A3C                     __pidataBANK5:
    75                           	callstack 0
    76                           
    77                           ;initializer for _T
    78  001A3C  D70A               	dw	55050
    79  001A3E  3C23               	dw	15395
    80                           
    81                           ;initializer for _LIM_MAX
    82                           ;Programa_principal.c: 20: float TAU = 3.0;;Programa_principal.c: 21: double LIM_MIN = -
      +                          1023.0;;Programa_principal.c: 22: double LIM_MAX = 1023.0;
    83  001A40  C000               	dw	49152
    84  001A42  447F               	dw	17535
    85                           
    86                           ;initializer for _LIM_MIN
    87  001A44  C000               	dw	49152
    88  001A46  C47F               	dw	50303
    89                           
    90                           ;initializer for _TAU
    91  001A48  0000               	dw	0
    92  001A4A  4040               	dw	16448
    93                           
    94                           	psect	nvBANK5
    95  000586                     __pnvBANK5:
    96                           	callstack 0
    97  000586                     _P:
    98                           	callstack 0
    99  000586                     	ds	4
   100  00058A                     _angulo:
   101                           	callstack 0
   102  00058A                     	ds	4
   103  00058E                     _ERROR:
   104                           	callstack 0
   105  00058E                     	ds	4
   106  0000                     _OSCCON1	set	173
   107  0000                     _U1BRG	set	686
   108  0000                     _RF5PPS	set	558
   109  0000                     _RF2PPS	set	555
   110  0000                     _U1RXB	set	673
   111  0000                     _U1TXB	set	675
   112  0000                     _U1ERRIRbits	set	690
   113  0000                     _U1RXPPS	set	626
   114  0000                     _RF0PPS	set	553
   115  0000                     _U1CON1bits	set	684
   116  0000                     _U1CON0bits	set	683
   117  0000                     _IPR1bits	set	867
   118  0000                     _ADRESL	set	1002
   119  0000                     _ADRESH	set	1003
   120  0000                     _ADPCH	set	1004
   121  0000                     _ADREFbits	set	1016
   122  0000                     _ADCON2bits	set	1013
   123  0000                     _ADCLK	set	1018
   124  0000                     _ADCON0bits	set	1011
   125  0000                     _IVTBASEL	set	1117
   126  0000                     _IVTBASEH	set	1118
   127  0000                     _IVTBASEU	set	1119
   128  0000                     _ANSELAbits	set	1024
   129  0000                     _ODCONDbits	set	1050
   130  0000                     _SLRCONDbits	set	1051
   131  0000                     _INLVLDbits	set	1052
   132  0000                     _WPUDbits	set	1049
   133  0000                     _ANSELDbits	set	1048
   134  0000                     _ODCONFbits	set	1066
   135  0000                     _SLRCONFbits	set	1067
   136  0000                     _INLVLFbits	set	1068
   137  0000                     _WPUFbits	set	1065
   138  0000                     _ANSELFbits	set	1064
   139  0000                     _ODCONBbits	set	1034
   140  0000                     _SLRCONBbits	set	1035
   141  0000                     _INLVLBbits	set	1036
   142  0000                     _WPUBbits	set	1033
   143  0000                     _ANSELBbits	set	1032
   144  0000                     _PWM1CONbits	set	1129
   145  0000                     _PWM1S1CFGbits	set	1130
   146  0000                     _PWM1S1P2H	set	1134
   147  0000                     _PWM1S1P2L	set	1133
   148  0000                     _PWM1S1P1H	set	1132
   149  0000                     _PWM1S1P1L	set	1131
   150  0000                     _PWM1PRH	set	1124
   151  0000                     _PWM1PRL	set	1123
   152  0000                     _PWM1CLK	set	1121
   153  0000                     _PWM1CPRE	set	1125
   154  0000                     _PORTBbits	set	1231
   155  0000                     _INTCON0bits	set	1238
   156  0000                     _PIR1bits	set	1199
   157  0000                     _PIE1bits	set	1183
   158  0000                     _TRISAbits	set	1222
   159  0000                     _LATFbits	set	1219
   160  0000                     _LATDbits	set	1217
   161  0000                     _TRISDbits	set	1225
   162  0000                     _TRISFbits	set	1227
   163  0000                     _TRISBbits	set	1223
   164                           
   165                           ; #config settings
   166                           
   167                           	psect	cinit
   168  001890                     __pcinit:
   169                           	callstack 0
   170  001890                     start_initialization:
   171                           	callstack 0
   172  001890                     __initialization:
   173                           	callstack 0
   174                           
   175                           ; Initialize objects allocated to BANK5 (16 bytes)
   176                           ; load TBLPTR registers with __pidataBANK5
   177  001890  0E3C               	movlw	low __pidataBANK5
   178  001892  6EF6               	movwf	tblptrl,c
   179  001894  0E1A               	movlw	high __pidataBANK5
   180  001896  6EF7               	movwf	tblptrh,c
   181  001898  0E00               	movlw	low (__pidataBANK5 shr (0+16))
   182  00189A  6EF8               	movwf	tblptru,c
   183  00189C  EE01  F176         	lfsr	0,__pdataBANK5
   184  0018A0  EE10 F010          	lfsr	1,16
   185  0018A4                     copy_data0:
   186  0018A4  0009               	tblrd		*+
   187  0018A6  C4F5 F4EE          	movff	tablat,postinc0
   188  0018AA  50E5               	movf	postdec1,w,c
   189  0018AC  50E1               	movf	fsr1l,w,c
   190  0018AE  E1FA               	bnz	copy_data0
   191                           
   192                           ; Clear objects allocated to BANK5 (22 bytes)
   193  0018B0  EE01  F160         	lfsr	0,__pbssBANK5
   194  0018B4  0E16               	movlw	22
   195  0018B6                     clear_0:
   196  0018B6  6AEE               	clrf	postinc0,c
   197  0018B8  06E8               	decf	wreg,f,c
   198  0018BA  E1FD               	bnz	clear_0
   199                           
   200                           ;
   201                           ; Setup IVTBASE
   202                           ;
   203  0018BC  0104               	movlb	4
   204  0018BE  0E00               	movlw	(ivt0x200_base shr 0)& (0+255)
   205  0018C0  6F5D               	movwf	93,b
   206  0018C2  0E02               	movlw	(ivt0x200_base shr (0+8))& (0+255)
   207  0018C4  6F5E               	movwf	94,b
   208  0018C6  0E00               	movlw	(ivt0x200_base shr (0+16))& (0+255)
   209  0018C8  6F5F               	movwf	95,b
   210  0018CA                     end_of_initialization:
   211                           	callstack 0
   212  0018CA                     __end_of__initialization:
   213                           	callstack 0
   214  0018CA  0100               	movlb	0
   215  0018CC  EF7F  F001         	goto	_main	;jump to C main() function
   216                           
   217                           	psect	bssBANK5
   218  000560                     __pbssBANK5:
   219                           	callstack 0
   220  000560                     _U_t:
   221                           	callstack 0
   222  000560                     	ds	4
   223  000564                     _Y_ANT:
   224                           	callstack 0
   225  000564                     	ds	4
   226  000568                     _E_ANT:
   227                           	callstack 0
   228  000568                     	ds	4
   229  00056C                     _D:
   230                           	callstack 0
   231  00056C                     	ds	4
   232  000570                     _I:
   233                           	callstack 0
   234  000570                     	ds	4
   235  000574                     _contador:
   236                           	callstack 0
   237  000574                     	ds	2
   238                           
   239                           	psect	dataBANK5
   240  000576                     __pdataBANK5:
   241                           	callstack 0
   242  000576                     _T:
   243                           	callstack 0
   244  000576                     	ds	4
   245  00057A                     _LIM_MAX:
   246                           	callstack 0
   247  00057A                     	ds	4
   248  00057E                     _LIM_MIN:
   249                           	callstack 0
   250  00057E                     	ds	4
   251  000582                     _TAU:
   252                           	callstack 0
   253  000582                     	ds	4
   254                           
   255                           	psect	cstackBANK5
   256  000592                     __pcstackBANK5:
   257                           	callstack 0
   258  000592                     _main$2053:
   259                           	callstack 0
   260                           
   261                           ; 4 bytes @ 0x0
   262  000592                     	ds	4
   263  000596                     main@referencia:
   264                           	callstack 0
   265                           
   266                           ; 4 bytes @ 0x4
   267  000596                     	ds	4
   268                           
   269                           	psect	cstackCOMRAM
   270  000501                     __pcstackCOMRAM:
   271                           	callstack 0
   272  000501                     ?_ADC_Conversion:
   273                           	callstack 0
   274  000501                     ?___fltol:
   275                           	callstack 0
   276  000501                     UART_Tx@dato:
   277                           	callstack 0
   278  000501                     ___flge@ff1:
   279                           	callstack 0
   280  000501                     ___fltol@f1:
   281                           	callstack 0
   282                           
   283                           ; 4 bytes @ 0x0
   284  000501                     	ds	2
   285  000503                     ??_ADC_Conversion:
   286                           
   287                           ; 1 bytes @ 0x2
   288  000503                     	ds	2
   289  000505                     ??___fltol:
   290  000505                     ADC_Conversion@canal:
   291                           	callstack 0
   292  000505                     ___flge@ff2:
   293                           	callstack 0
   294                           
   295                           ; 4 bytes @ 0x4
   296  000505                     	ds	1
   297  000506                     ?___xxtofl:
   298                           	callstack 0
   299  000506                     ___xxtofl@val:
   300                           	callstack 0
   301                           
   302                           ; 4 bytes @ 0x5
   303  000506                     	ds	3
   304  000509                     ??___flge:
   305  000509                     ___fltol@sign1:
   306                           	callstack 0
   307                           
   308                           ; 1 bytes @ 0x8
   309  000509                     	ds	1
   310  00050A                     ??___xxtofl:
   311  00050A                     ___fltol@exp1:
   312                           	callstack 0
   313                           
   314                           ; 1 bytes @ 0x9
   315  00050A                     	ds	1
   316  00050B                     PWM_ChangeDuty@duty:
   317                           	callstack 0
   318                           
   319                           ; 2 bytes @ 0xA
   320  00050B                     	ds	2
   321  00050D                     
   322                           ; 1 bytes @ 0xC
   323  00050D                     	ds	1
   324  00050E                     ___xxtofl@sign:
   325                           	callstack 0
   326                           
   327                           ; 1 bytes @ 0xD
   328  00050E                     	ds	1
   329  00050F                     ___xxtofl@exp:
   330                           	callstack 0
   331                           
   332                           ; 1 bytes @ 0xE
   333  00050F                     	ds	1
   334  000510                     ___xxtofl@arg:
   335                           	callstack 0
   336                           
   337                           ; 4 bytes @ 0xF
   338  000510                     	ds	4
   339  000514                     ?___flmul:
   340                           	callstack 0
   341  000514                     ___flmul@b:
   342                           	callstack 0
   343                           
   344                           ; 4 bytes @ 0x13
   345  000514                     	ds	4
   346  000518                     ___flmul@a:
   347                           	callstack 0
   348                           
   349                           ; 4 bytes @ 0x17
   350  000518                     	ds	4
   351  00051C                     ??___flmul:
   352                           
   353                           ; 1 bytes @ 0x1B
   354  00051C                     	ds	4
   355  000520                     ___flmul@sign:
   356                           	callstack 0
   357                           
   358                           ; 1 bytes @ 0x1F
   359  000520                     	ds	1
   360  000521                     ___flmul@grs:
   361                           	callstack 0
   362                           
   363                           ; 4 bytes @ 0x20
   364  000521                     	ds	4
   365  000525                     ___flmul@aexp:
   366                           	callstack 0
   367                           
   368                           ; 1 bytes @ 0x24
   369  000525                     	ds	1
   370  000526                     ___flmul@bexp:
   371                           	callstack 0
   372                           
   373                           ; 1 bytes @ 0x25
   374  000526                     	ds	1
   375  000527                     ___flmul@prod:
   376                           	callstack 0
   377                           
   378                           ; 4 bytes @ 0x26
   379  000527                     	ds	4
   380  00052B                     ___flmul@temp:
   381                           	callstack 0
   382                           
   383                           ; 2 bytes @ 0x2A
   384  00052B                     	ds	2
   385  00052D                     ?___fldiv:
   386                           	callstack 0
   387  00052D                     ___fldiv@b:
   388                           	callstack 0
   389                           
   390                           ; 4 bytes @ 0x2C
   391  00052D                     	ds	4
   392  000531                     ___fldiv@a:
   393                           	callstack 0
   394                           
   395                           ; 4 bytes @ 0x30
   396  000531                     	ds	4
   397  000535                     ??___fldiv:
   398                           
   399                           ; 1 bytes @ 0x34
   400  000535                     	ds	4
   401  000539                     ___fldiv@rem:
   402                           	callstack 0
   403                           
   404                           ; 4 bytes @ 0x38
   405  000539                     	ds	4
   406  00053D                     ___fldiv@sign:
   407                           	callstack 0
   408                           
   409                           ; 1 bytes @ 0x3C
   410  00053D                     	ds	1
   411  00053E                     ___fldiv@new_exp:
   412                           	callstack 0
   413                           
   414                           ; 2 bytes @ 0x3D
   415  00053E                     	ds	2
   416  000540                     ___fldiv@grs:
   417                           	callstack 0
   418                           
   419                           ; 4 bytes @ 0x3F
   420  000540                     	ds	4
   421  000544                     ___fldiv@bexp:
   422                           	callstack 0
   423                           
   424                           ; 1 bytes @ 0x43
   425  000544                     	ds	1
   426  000545                     ___fldiv@aexp:
   427                           	callstack 0
   428                           
   429                           ; 1 bytes @ 0x44
   430  000545                     	ds	1
   431  000546                     ?___fladd:
   432                           	callstack 0
   433  000546                     ___fladd@b:
   434                           	callstack 0
   435                           
   436                           ; 4 bytes @ 0x45
   437  000546                     	ds	4
   438  00054A                     ___fladd@a:
   439                           	callstack 0
   440                           
   441                           ; 4 bytes @ 0x49
   442  00054A                     	ds	4
   443  00054E                     ??___fladd:
   444                           
   445                           ; 1 bytes @ 0x4D
   446  00054E                     	ds	4
   447  000552                     ___fladd@signs:
   448                           	callstack 0
   449                           
   450                           ; 1 bytes @ 0x51
   451  000552                     	ds	1
   452  000553                     ___fladd@aexp:
   453                           	callstack 0
   454                           
   455                           ; 1 bytes @ 0x52
   456  000553                     	ds	1
   457  000554                     ___fladd@bexp:
   458                           	callstack 0
   459                           
   460                           ; 1 bytes @ 0x53
   461  000554                     	ds	1
   462  000555                     ___fladd@grs:
   463                           	callstack 0
   464                           
   465                           ; 1 bytes @ 0x54
   466  000555                     	ds	1
   467  000556                     ?___flsub:
   468                           	callstack 0
   469  000556                     ?___flneg:
   470                           	callstack 0
   471  000556                     ___flneg@f1:
   472                           	callstack 0
   473  000556                     ___flsub@b:
   474                           	callstack 0
   475                           
   476                           ; 4 bytes @ 0x55
   477  000556                     	ds	4
   478  00055A                     ___flsub@a:
   479                           	callstack 0
   480                           
   481                           ; 4 bytes @ 0x59
   482  00055A                     	ds	4
   483  00055E                     ??_main:
   484                           
   485                           ; 1 bytes @ 0x5D
   486  00055E                     	ds	2
   487                           
   488 ;;
   489 ;;Main: autosize = 0, tempsize = 2, incstack = 0, save=0
   490 ;;
   491 ;; *************** function _main *****************
   492 ;; Defined at:
   493 ;;		line 35 in file "Programa_principal.c"
   494 ;; Parameters:    Size  Location     Type
   495 ;;		None
   496 ;; Auto vars:     Size  Location     Type
   497 ;;  referencia      4    4[BANK5 ] float 
   498 ;; Return value:  Size  Location     Type
   499 ;;                  1    wreg      void 
   500 ;; Registers used:
   501 ;;		wreg, status,2, status,0, prodl, prodh, cstack
   502 ;; Tracked objects:
   503 ;;		On entry : 0/0
   504 ;;		On exit  : 0/0
   505 ;;		Unchanged: 0/0
   506 ;; Data sizes:     COMRAM   BANK5   BANK6   BANK7   BANK8   BANK9  BANK10  BANK11  BANK12  BANK13  BANK14  BANK15  BANK1
      +6  BANK17  BANK18  BANK19  BANK20  BANK21  BANK22  BANK23  BANK24  BANK25  BANK26  BANK27  BANK28  BANK29  BANK30  BANK3
      +1  BANK32  BANK33  BANK34  BANK35  BANK36  BANK37
   507 ;;      Params:         0       0       0       0       0       0       0       0       0       0       0       0       
      +0       0       0       0       0       0       0       0       0       0       0       0       0       0       0       
      +0       0       0       0       0       0       0
   508 ;;      Locals:         0       8       0       0       0       0       0       0       0       0       0       0       
      +0       0       0       0       0       0       0       0       0       0       0       0       0       0       0       
      +0       0       0       0       0       0       0
   509 ;;      Temps:          2       0       0       0       0       0       0       0       0       0       0       0       
      +0       0       0       0       0       0       0       0       0       0       0       0       0       0       0       
      +0       0       0       0       0       0       0
   510 ;;      Totals:         2       8       0       0       0       0       0       0       0       0       0       0       
      +0       0       0       0       0       0       0       0       0       0       0       0       0       0       0       
      +0       0       0       0       0       0       0
   511 ;;Total ram usage:       10 bytes
   512 ;; Hardware stack levels required when called: 4
   513 ;; This function calls:
   514 ;;		_ADC_Conversion
   515 ;;		_ADC_Init
   516 ;;		_Clock_Init
   517 ;;		_INT_Init
   518 ;;		_PWM16_Init
   519 ;;		_PWM_ChangeDuty
   520 ;;		_UART_Init
   521 ;;		_UART_Tx
   522 ;;		___fladd
   523 ;;		___fldiv
   524 ;;		___flge
   525 ;;		___flmul
   526 ;;		___flneg
   527 ;;		___flsub
   528 ;;		___fltol
   529 ;;		___xxtofl
   530 ;; This function is called by:
   531 ;;		Startup code after reset
   532 ;; This function uses a non-reentrant model
   533 ;;
   534                           
   535                           	psect	text0
   536  0002FE                     __ptext0:
   537                           	callstack 0
   538  0002FE                     _main:
   539                           	callstack 123
   540  0002FE                     
   541                           ;Programa_principal.c: 38:     Clock_Init();
   542  0002FE  EC2D  F00D         	call	_Clock_Init	;wreg free
   543  000302                     
   544                           ;Programa_principal.c: 39:     TRISBbits.TRISB1 = 1;
   545  000302  82C7               	bsf	199,1,c	;volatile
   546  000304                     
   547                           ;Programa_principal.c: 40:     ANSELBbits.ANSELB1 = 0;
   548  000304  0104               	movlb	4	; () banked
   549  000306  9308               	bcf	8,1,b	;volatile
   550  000308                     
   551                           ; BSR set to: 4
   552                           ;Programa_principal.c: 41:     WPUBbits.WPUB1 = 0;
   553  000308  9309               	bcf	9,1,b	;volatile
   554  00030A                     
   555                           ; BSR set to: 4
   556                           ;Programa_principal.c: 42:     INLVLBbits.INLVLB1 = 0;
   557  00030A  930C               	bcf	12,1,b	;volatile
   558  00030C                     
   559                           ; BSR set to: 4
   560                           ;Programa_principal.c: 43:     SLRCONBbits.SLRB1 = 1;
   561  00030C  830B               	bsf	11,1,b	;volatile
   562  00030E                     
   563                           ; BSR set to: 4
   564                           ;Programa_principal.c: 44:     ODCONBbits.ODCB1 = 0;
   565  00030E  930A               	bcf	10,1,b	;volatile
   566  000310                     
   567                           ; BSR set to: 4
   568                           ;Programa_principal.c: 46:     TRISFbits.TRISF3 = 0;
   569  000310  96CB               	bcf	203,3,c	;volatile
   570  000312                     
   571                           ; BSR set to: 4
   572                           ;Programa_principal.c: 47:     ANSELFbits.ANSELF3 = 0;
   573  000312  9728               	bcf	40,3,b	;volatile
   574  000314                     
   575                           ; BSR set to: 4
   576                           ;Programa_principal.c: 48:     WPUFbits.WPUF3 = 0;
   577  000314  9729               	bcf	41,3,b	;volatile
   578  000316                     
   579                           ; BSR set to: 4
   580                           ;Programa_principal.c: 49:     INLVLFbits.INLVLF3 = 0;
   581  000316  972C               	bcf	44,3,b	;volatile
   582  000318                     
   583                           ; BSR set to: 4
   584                           ;Programa_principal.c: 50:     SLRCONFbits.SLRF3 = 1;
   585  000318  872B               	bsf	43,3,b	;volatile
   586  00031A                     
   587                           ; BSR set to: 4
   588                           ;Programa_principal.c: 51:     ODCONFbits.ODCF3 = 0;
   589  00031A  972A               	bcf	42,3,b	;volatile
   590  00031C                     
   591                           ; BSR set to: 4
   592                           ;Programa_principal.c: 53:     TRISFbits.TRISF5 = 0;
   593  00031C  9ACB               	bcf	203,5,c	;volatile
   594  00031E                     
   595                           ; BSR set to: 4
   596                           ;Programa_principal.c: 54:     ANSELFbits.ANSELF5 = 0;
   597  00031E  9B28               	bcf	40,5,b	;volatile
   598  000320                     
   599                           ; BSR set to: 4
   600                           ;Programa_principal.c: 55:     WPUFbits.WPUF5 = 0;
   601  000320  9B29               	bcf	41,5,b	;volatile
   602  000322                     
   603                           ; BSR set to: 4
   604                           ;Programa_principal.c: 56:     INLVLFbits.INLVLF5 = 0;
   605  000322  9B2C               	bcf	44,5,b	;volatile
   606  000324                     
   607                           ; BSR set to: 4
   608                           ;Programa_principal.c: 57:     SLRCONFbits.SLRF5 = 1;
   609  000324  8B2B               	bsf	43,5,b	;volatile
   610  000326                     
   611                           ; BSR set to: 4
   612                           ;Programa_principal.c: 58:     ODCONFbits.ODCF5 = 0;
   613  000326  9B2A               	bcf	42,5,b	;volatile
   614  000328                     
   615                           ; BSR set to: 4
   616                           ;Programa_principal.c: 60:     TRISFbits.TRISF2 = 0;
   617  000328  94CB               	bcf	203,2,c	;volatile
   618  00032A                     
   619                           ; BSR set to: 4
   620                           ;Programa_principal.c: 61:     ANSELFbits.ANSELF2 = 0;
   621  00032A  9528               	bcf	40,2,b	;volatile
   622  00032C                     
   623                           ; BSR set to: 4
   624                           ;Programa_principal.c: 62:     WPUFbits.WPUF2 = 0;
   625  00032C  9529               	bcf	41,2,b	;volatile
   626  00032E                     
   627                           ; BSR set to: 4
   628                           ;Programa_principal.c: 63:     INLVLFbits.INLVLF2 = 0;
   629  00032E  952C               	bcf	44,2,b	;volatile
   630  000330                     
   631                           ; BSR set to: 4
   632                           ;Programa_principal.c: 64:     SLRCONFbits.SLRF2 = 1;
   633  000330  852B               	bsf	43,2,b	;volatile
   634  000332                     
   635                           ; BSR set to: 4
   636                           ;Programa_principal.c: 65:     ODCONFbits.ODCF2 = 0;
   637  000332  952A               	bcf	42,2,b	;volatile
   638  000334                     
   639                           ; BSR set to: 4
   640                           ;Programa_principal.c: 67:     TRISDbits.TRISD0 = 0;
   641  000334  90C9               	bcf	201,0,c	;volatile
   642  000336                     
   643                           ; BSR set to: 4
   644                           ;Programa_principal.c: 68:     ANSELDbits.ANSELD0 = 0;
   645  000336  9118               	bcf	24,0,b	;volatile
   646  000338                     
   647                           ; BSR set to: 4
   648                           ;Programa_principal.c: 69:     WPUDbits.WPUD0 = 0;
   649  000338  9119               	bcf	25,0,b	;volatile
   650  00033A                     
   651                           ; BSR set to: 4
   652                           ;Programa_principal.c: 70:     INLVLDbits.INLVLD0 = 0;
   653  00033A  911C               	bcf	28,0,b	;volatile
   654  00033C                     
   655                           ; BSR set to: 4
   656                           ;Programa_principal.c: 71:     SLRCONDbits.SLRD0 = 1;
   657  00033C  811B               	bsf	27,0,b	;volatile
   658  00033E                     
   659                           ; BSR set to: 4
   660                           ;Programa_principal.c: 72:     ODCONDbits.ODCD0 = 0;
   661  00033E  911A               	bcf	26,0,b	;volatile
   662  000340                     
   663                           ; BSR set to: 4
   664                           ;Programa_principal.c: 74:     TRISDbits.TRISD1 = 0;
   665  000340  92C9               	bcf	201,1,c	;volatile
   666  000342                     
   667                           ; BSR set to: 4
   668                           ;Programa_principal.c: 75:     ANSELDbits.ANSELD1 = 0;
   669  000342  9318               	bcf	24,1,b	;volatile
   670  000344                     
   671                           ; BSR set to: 4
   672                           ;Programa_principal.c: 76:     WPUDbits.WPUD1 = 0;
   673  000344  9319               	bcf	25,1,b	;volatile
   674  000346                     
   675                           ; BSR set to: 4
   676                           ;Programa_principal.c: 77:     INLVLDbits.INLVLD1 = 0;
   677  000346  931C               	bcf	28,1,b	;volatile
   678  000348                     
   679                           ; BSR set to: 4
   680                           ;Programa_principal.c: 78:     SLRCONDbits.SLRD1 = 1;
   681  000348  831B               	bsf	27,1,b	;volatile
   682  00034A                     
   683                           ; BSR set to: 4
   684                           ;Programa_principal.c: 79:     ODCONDbits.ODCD1 = 0;
   685  00034A  931A               	bcf	26,1,b	;volatile
   686  00034C                     
   687                           ; BSR set to: 4
   688                           ;Programa_principal.c: 80:     PWM16_Init();
   689  00034C  EC84  F00C         	call	_PWM16_Init	;wreg free
   690  000350                     
   691                           ;Programa_principal.c: 81:     UART_Init();
   692  000350  ECB7  F00C         	call	_UART_Init	;wreg free
   693  000354                     
   694                           ;Programa_principal.c: 82:     ADC_Init();
   695  000354  ECFE  F00C         	call	_ADC_Init	;wreg free
   696  000358                     
   697                           ;Programa_principal.c: 83:     INT_Init();
   698  000358  ECCF  F00C         	call	_INT_Init	;wreg free
   699  00035C                     l2482:
   700                           
   701                           ;Programa_principal.c: 85:         referencia = ADC_Conversion(0)*360.0/4095.0-180;
   702  00035C  0E00               	movlw	0
   703  00035E  6E31               	movwf	___fldiv@a^(0+1280),c
   704  000360  0EF0               	movlw	240
   705  000362  6E32               	movwf	(___fldiv@a+1)^(0+1280),c
   706  000364  0E7F               	movlw	127
   707  000366  6E33               	movwf	(___fldiv@a+2)^(0+1280),c
   708  000368  0E45               	movlw	69
   709  00036A  6E34               	movwf	(___fldiv@a+3)^(0+1280),c
   710  00036C  0E00               	movlw	0
   711  00036E  6E18               	movwf	___flmul@a^(0+1280),c
   712  000370  0E00               	movlw	0
   713  000372  6E19               	movwf	(___flmul@a+1)^(0+1280),c
   714  000374  0EB4               	movlw	180
   715  000376  6E1A               	movwf	(___flmul@a+2)^(0+1280),c
   716  000378  0E43               	movlw	67
   717  00037A  6E1B               	movwf	(___flmul@a+3)^(0+1280),c
   718  00037C  0E00               	movlw	0
   719  00037E  ECE7  F00C         	call	_ADC_Conversion
   720  000382  C501  F506         	movff	?_ADC_Conversion,___xxtofl@val
   721  000386  C502  F507         	movff	?_ADC_Conversion+1,___xxtofl@val+1
   722  00038A  6A08               	clrf	(___xxtofl@val+2)^(0+1280),c
   723  00038C  6A09               	clrf	(___xxtofl@val+3)^(0+1280),c
   724  00038E  0E00               	movlw	0
   725  000390  EC46  F00A         	call	___xxtofl
   726  000394  C506  F514         	movff	?___xxtofl,___flmul@b
   727  000398  C507  F515         	movff	?___xxtofl+1,___flmul@b+1
   728  00039C  C508  F516         	movff	?___xxtofl+2,___flmul@b+2
   729  0003A0  C509  F517         	movff	?___xxtofl+3,___flmul@b+3
   730  0003A4  EC52  F006         	call	___flmul	;wreg free
   731  0003A8  C514  F52D         	movff	?___flmul,___fldiv@b
   732  0003AC  C515  F52E         	movff	?___flmul+1,___fldiv@b+1
   733  0003B0  C516  F52F         	movff	?___flmul+2,___fldiv@b+2
   734  0003B4  C517  F530         	movff	?___flmul+3,___fldiv@b+3
   735  0003B8  EC79  F008         	call	___fldiv	;wreg free
   736  0003BC  C52D  F546         	movff	?___fldiv,___fladd@b
   737  0003C0  C52E  F547         	movff	?___fldiv+1,___fladd@b+1
   738  0003C4  C52F  F548         	movff	?___fldiv+2,___fladd@b+2
   739  0003C8  C530  F549         	movff	?___fldiv+3,___fladd@b+3
   740  0003CC  0E00               	movlw	0
   741  0003CE  6E4A               	movwf	___fladd@a^(0+1280),c
   742  0003D0  0E00               	movlw	0
   743  0003D2  6E4B               	movwf	(___fladd@a+1)^(0+1280),c
   744  0003D4  0E34               	movlw	52
   745  0003D6  6E4C               	movwf	(___fladd@a+2)^(0+1280),c
   746  0003D8  0EC3               	movlw	195
   747  0003DA  6E4D               	movwf	(___fladd@a+3)^(0+1280),c
   748  0003DC  ECF2  F003         	call	___fladd	;wreg free
   749  0003E0  C546  F596         	movff	?___fladd,main@referencia
   750  0003E4  C547  F597         	movff	?___fladd+1,main@referencia+1
   751  0003E8  C548  F598         	movff	?___fladd+2,main@referencia+2
   752  0003EC  C549  F599         	movff	?___fladd+3,main@referencia+3
   753  0003F0                     
   754                           ;Programa_principal.c: 87:         angulo = contador/4.45;
   755  0003F0  C574  F506         	movff	_contador,___xxtofl@val
   756  0003F4  C575  F507         	movff	_contador+1,___xxtofl@val+1
   757  0003F8  0E00               	movlw	0
   758  0003FA  BE07               	btfsc	(___xxtofl@val+1)^(0+1280),7,c
   759  0003FC  0EFF               	movlw	-1
   760  0003FE  6E08               	movwf	(___xxtofl@val+2)^(0+1280),c
   761  000400  6E09               	movwf	(___xxtofl@val+3)^(0+1280),c
   762  000402  0E01               	movlw	1
   763  000404  EC46  F00A         	call	___xxtofl
   764  000408  C506  F52D         	movff	?___xxtofl,___fldiv@b
   765  00040C  C507  F52E         	movff	?___xxtofl+1,___fldiv@b+1
   766  000410  C508  F52F         	movff	?___xxtofl+2,___fldiv@b+2
   767  000414  C509  F530         	movff	?___xxtofl+3,___fldiv@b+3
   768  000418  0E66               	movlw	102
   769  00041A  6E31               	movwf	___fldiv@a^(0+1280),c
   770  00041C  0E66               	movlw	102
   771  00041E  6E32               	movwf	(___fldiv@a+1)^(0+1280),c
   772  000420  0E8E               	movlw	142
   773  000422  6E33               	movwf	(___fldiv@a+2)^(0+1280),c
   774  000424  0E40               	movlw	64
   775  000426  6E34               	movwf	(___fldiv@a+3)^(0+1280),c
   776  000428  EC79  F008         	call	___fldiv	;wreg free
   777  00042C  C52D  F58A         	movff	?___fldiv,_angulo
   778  000430  C52E  F58B         	movff	?___fldiv+1,_angulo+1
   779  000434  C52F  F58C         	movff	?___fldiv+2,_angulo+2
   780  000438  C530  F58D         	movff	?___fldiv+3,_angulo+3
   781  00043C                     
   782                           ;Programa_principal.c: 88:         ERROR = referencia-angulo;
   783  00043C  C596  F556         	movff	main@referencia,___flsub@b
   784  000440  C597  F557         	movff	main@referencia+1,___flsub@b+1
   785  000444  C598  F558         	movff	main@referencia+2,___flsub@b+2
   786  000448  C599  F559         	movff	main@referencia+3,___flsub@b+3
   787  00044C  C58A  F55A         	movff	_angulo,___flsub@a
   788  000450  C58B  F55B         	movff	_angulo+1,___flsub@a+1
   789  000454  C58C  F55C         	movff	_angulo+2,___flsub@a+2
   790  000458  C58D  F55D         	movff	_angulo+3,___flsub@a+3
   791  00045C  EC25  F00C         	call	___flsub	;wreg free
   792  000460  C556  F58E         	movff	?___flsub,_ERROR
   793  000464  C557  F58F         	movff	?___flsub+1,_ERROR+1
   794  000468  C558  F590         	movff	?___flsub+2,_ERROR+2
   795  00046C  C559  F591         	movff	?___flsub+3,_ERROR+3
   796  000470                     
   797                           ;Programa_principal.c: 90:         P = 5.0*ERROR;
   798  000470  C58E  F514         	movff	_ERROR,___flmul@b
   799  000474  C58F  F515         	movff	_ERROR+1,___flmul@b+1
   800  000478  C590  F516         	movff	_ERROR+2,___flmul@b+2
   801  00047C  C591  F517         	movff	_ERROR+3,___flmul@b+3
   802  000480  0E00               	movlw	0
   803  000482  6E18               	movwf	___flmul@a^(0+1280),c
   804  000484  0E00               	movlw	0
   805  000486  6E19               	movwf	(___flmul@a+1)^(0+1280),c
   806  000488  0EA0               	movlw	160
   807  00048A  6E1A               	movwf	(___flmul@a+2)^(0+1280),c
   808  00048C  0E40               	movlw	64
   809  00048E  6E1B               	movwf	(___flmul@a+3)^(0+1280),c
   810  000490  EC52  F006         	call	___flmul	;wreg free
   811  000494  C514  F586         	movff	?___flmul,_P
   812  000498  C515  F587         	movff	?___flmul+1,_P+1
   813  00049C  C516  F588         	movff	?___flmul+2,_P+2
   814  0004A0  C517  F589         	movff	?___flmul+3,_P+3
   815  0004A4                     
   816                           ;Programa_principal.c: 92:         if(U_t>LIM_MAX){
   817  0004A4  0E00               	movlw	0
   818  0004A6  6E01               	movwf	___flge@ff1^(0+1280),c
   819  0004A8  0EC0               	movlw	192
   820  0004AA  6E02               	movwf	(___flge@ff1+1)^(0+1280),c
   821  0004AC  0E7F               	movlw	127
   822  0004AE  6E03               	movwf	(___flge@ff1+2)^(0+1280),c
   823  0004B0  0E44               	movlw	68
   824  0004B2  6E04               	movwf	(___flge@ff1+3)^(0+1280),c
   825  0004B4  C560  F505         	movff	_U_t,___flge@ff2
   826  0004B8  C561  F506         	movff	_U_t+1,___flge@ff2+1
   827  0004BC  C562  F507         	movff	_U_t+2,___flge@ff2+2
   828  0004C0  C563  F508         	movff	_U_t+3,___flge@ff2+3
   829  0004C4  ECA3  F00B         	call	___flge	;wreg free
   830  0004C8  B0D8               	btfsc	status,0,c
   831  0004CA  EF69  F002         	goto	u2201
   832  0004CE  EF6B  F002         	goto	u2200
   833  0004D2                     u2201:
   834  0004D2  EF6D  F002         	goto	l2494
   835  0004D6                     u2200:
   836  0004D6  EFB4  F002         	goto	l91
   837  0004DA                     l2494:
   838  0004DA  C560  F501         	movff	_U_t,___flge@ff1
   839  0004DE  C561  F502         	movff	_U_t+1,___flge@ff1+1
   840  0004E2  C562  F503         	movff	_U_t+2,___flge@ff1+2
   841  0004E6  C563  F504         	movff	_U_t+3,___flge@ff1+3
   842  0004EA  0E00               	movlw	0
   843  0004EC  6E05               	movwf	___flge@ff2^(0+1280),c
   844  0004EE  0EC0               	movlw	192
   845  0004F0  6E06               	movwf	(___flge@ff2+1)^(0+1280),c
   846  0004F2  0E7F               	movlw	127
   847  0004F4  6E07               	movwf	(___flge@ff2+2)^(0+1280),c
   848  0004F6  0EC4               	movlw	196
   849  0004F8  6E08               	movwf	(___flge@ff2+3)^(0+1280),c
   850  0004FA  ECA3  F00B         	call	___flge	;wreg free
   851  0004FE  B0D8               	btfsc	status,0,c
   852  000500  EF84  F002         	goto	u2211
   853  000504  EF86  F002         	goto	u2210
   854  000508                     u2211:
   855  000508  EF88  F002         	goto	l2498
   856  00050C                     u2210:
   857  00050C  EFB4  F002         	goto	l91
   858  000510                     l2498:
   859                           
   860                           ;Programa_principal.c: 99:             I = I + 0.5*0.0*T*(ERROR+E_ANT);
   861  000510  0E00               	movlw	0
   862  000512  6E18               	movwf	___flmul@a^(0+1280),c
   863  000514  0E00               	movlw	0
   864  000516  6E19               	movwf	(___flmul@a+1)^(0+1280),c
   865  000518  0E00               	movlw	0
   866  00051A  6E1A               	movwf	(___flmul@a+2)^(0+1280),c
   867  00051C  0E00               	movlw	0
   868  00051E  6E1B               	movwf	(___flmul@a+3)^(0+1280),c
   869  000520  C58E  F514         	movff	_ERROR,___flmul@b
   870  000524  C58F  F515         	movff	_ERROR+1,___flmul@b+1
   871  000528  C590  F516         	movff	_ERROR+2,___flmul@b+2
   872  00052C  C591  F517         	movff	_ERROR+3,___flmul@b+3
   873  000530  EC52  F006         	call	___flmul	;wreg free
   874  000534  C514  F546         	movff	?___flmul,___fladd@b
   875  000538  C515  F547         	movff	?___flmul+1,___fladd@b+1
   876  00053C  C516  F548         	movff	?___flmul+2,___fladd@b+2
   877  000540  C517  F549         	movff	?___flmul+3,___fladd@b+3
   878  000544  C570  F54A         	movff	_I,___fladd@a
   879  000548  C571  F54B         	movff	_I+1,___fladd@a+1
   880  00054C  C572  F54C         	movff	_I+2,___fladd@a+2
   881  000550  C573  F54D         	movff	_I+3,___fladd@a+3
   882  000554  ECF2  F003         	call	___fladd	;wreg free
   883  000558  C546  F570         	movff	?___fladd,_I
   884  00055C  C547  F571         	movff	?___fladd+1,_I+1
   885  000560  C548  F572         	movff	?___fladd+2,_I+2
   886  000564  C549  F573         	movff	?___fladd+3,_I+3
   887  000568                     l91:
   888                           
   889                           ;Programa_principal.c: 101:         D = -(2.0*2.0*(angulo-Y_ANT)+(2.0*TAU-T)*D)/(2.0*TAU
      +                          +T);
   890  000568  0E14               	movlw	20
   891  00056A  6E18               	movwf	___flmul@a^(0+1280),c
   892  00056C  0EAE               	movlw	174
   893  00056E  6E19               	movwf	(___flmul@a+1)^(0+1280),c
   894  000570  0EBF               	movlw	191
   895  000572  6E1A               	movwf	(___flmul@a+2)^(0+1280),c
   896  000574  0E40               	movlw	64
   897  000576  6E1B               	movwf	(___flmul@a+3)^(0+1280),c
   898  000578  C56C  F514         	movff	_D,___flmul@b
   899  00057C  C56D  F515         	movff	_D+1,___flmul@b+1
   900  000580  C56E  F516         	movff	_D+2,___flmul@b+2
   901  000584  C56F  F517         	movff	_D+3,___flmul@b+3
   902  000588  EC52  F006         	call	___flmul	;wreg free
   903  00058C  C514  F54A         	movff	?___flmul,___fladd@a
   904  000590  C515  F54B         	movff	?___flmul+1,___fladd@a+1
   905  000594  C516  F54C         	movff	?___flmul+2,___fladd@a+2
   906  000598  C517  F54D         	movff	?___flmul+3,___fladd@a+3
   907  00059C  0E00               	movlw	0
   908  00059E  6E18               	movwf	___flmul@a^(0+1280),c
   909  0005A0  0E00               	movlw	0
   910  0005A2  6E19               	movwf	(___flmul@a+1)^(0+1280),c
   911  0005A4  0E80               	movlw	128
   912  0005A6  6E1A               	movwf	(___flmul@a+2)^(0+1280),c
   913  0005A8  0E40               	movlw	64
   914  0005AA  6E1B               	movwf	(___flmul@a+3)^(0+1280),c
   915  0005AC  C58A  F514         	movff	_angulo,___flmul@b
   916  0005B0  C58B  F515         	movff	_angulo+1,___flmul@b+1
   917  0005B4  C58C  F516         	movff	_angulo+2,___flmul@b+2
   918  0005B8  C58D  F517         	movff	_angulo+3,___flmul@b+3
   919  0005BC  EC52  F006         	call	___flmul	;wreg free
   920  0005C0  C514  F546         	movff	?___flmul,___fladd@b
   921  0005C4  C515  F547         	movff	?___flmul+1,___fladd@b+1
   922  0005C8  C516  F548         	movff	?___flmul+2,___fladd@b+2
   923  0005CC  C517  F549         	movff	?___flmul+3,___fladd@b+3
   924  0005D0  ECF2  F003         	call	___fladd	;wreg free
   925  0005D4  C546  F556         	movff	?___fladd,___flneg@f1
   926  0005D8  C547  F557         	movff	?___fladd+1,___flneg@f1+1
   927  0005DC  C548  F558         	movff	?___fladd+2,___flneg@f1+2
   928  0005E0  C549  F559         	movff	?___fladd+3,___flneg@f1+3
   929  0005E4  EC68  F00C         	call	___flneg	;wreg free
   930  0005E8  C556  F52D         	movff	?___flneg,___fldiv@b
   931  0005EC  C557  F52E         	movff	?___flneg+1,___fldiv@b+1
   932  0005F0  C558  F52F         	movff	?___flneg+2,___fldiv@b+2
   933  0005F4  C559  F530         	movff	?___flneg+3,___fldiv@b+3
   934  0005F8  0EEC               	movlw	236
   935  0005FA  6E31               	movwf	___fldiv@a^(0+1280),c
   936  0005FC  0E51               	movlw	81
   937  0005FE  6E32               	movwf	(___fldiv@a+1)^(0+1280),c
   938  000600  0EC0               	movlw	192
   939  000602  6E33               	movwf	(___fldiv@a+2)^(0+1280),c
   940  000604  0E40               	movlw	64
   941  000606  6E34               	movwf	(___fldiv@a+3)^(0+1280),c
   942  000608  EC79  F008         	call	___fldiv	;wreg free
   943  00060C  C52D  F56C         	movff	?___fldiv,_D
   944  000610  C52E  F56D         	movff	?___fldiv+1,_D+1
   945  000614  C52F  F56E         	movff	?___fldiv+2,_D+2
   946  000618  C530  F56F         	movff	?___fldiv+3,_D+3
   947  00061C                     
   948                           ;Programa_principal.c: 103:         U_t = P+I+D;
   949  00061C  C570  F54A         	movff	_I,___fladd@a
   950  000620  C571  F54B         	movff	_I+1,___fladd@a+1
   951  000624  C572  F54C         	movff	_I+2,___fladd@a+2
   952  000628  C573  F54D         	movff	_I+3,___fladd@a+3
   953  00062C  C586  F546         	movff	_P,___fladd@b
   954  000630  C587  F547         	movff	_P+1,___fladd@b+1
   955  000634  C588  F548         	movff	_P+2,___fladd@b+2
   956  000638  C589  F549         	movff	_P+3,___fladd@b+3
   957  00063C  ECF2  F003         	call	___fladd	;wreg free
   958  000640  C546  F592         	movff	?___fladd,_main$2053
   959  000644  C547  F593         	movff	?___fladd+1,_main$2053+1
   960  000648  C548  F594         	movff	?___fladd+2,_main$2053+2
   961  00064C  C549  F595         	movff	?___fladd+3,_main$2053+3
   962  000650                     
   963                           ;Programa_principal.c: 103:         U_t = P+I+D;
   964  000650  C592  F546         	movff	_main$2053,___fladd@b
   965  000654  C593  F547         	movff	_main$2053+1,___fladd@b+1
   966  000658  C594  F548         	movff	_main$2053+2,___fladd@b+2
   967  00065C  C595  F549         	movff	_main$2053+3,___fladd@b+3
   968  000660  C56C  F54A         	movff	_D,___fladd@a
   969  000664  C56D  F54B         	movff	_D+1,___fladd@a+1
   970  000668  C56E  F54C         	movff	_D+2,___fladd@a+2
   971  00066C  C56F  F54D         	movff	_D+3,___fladd@a+3
   972  000670  ECF2  F003         	call	___fladd	;wreg free
   973  000674  C546  F560         	movff	?___fladd,_U_t
   974  000678  C547  F561         	movff	?___fladd+1,_U_t+1
   975  00067C  C548  F562         	movff	?___fladd+2,_U_t+2
   976  000680  C549  F563         	movff	?___fladd+3,_U_t+3
   977  000684                     
   978                           ;Programa_principal.c: 105:         if(U_t<0){
   979  000684  0105               	movlb	5	; () banked
   980  000686  BF63               	btfsc	(_U_t+3)& (0+255),7,b
   981  000688  EF4A  F003         	goto	u2220
   982  00068C  EF48  F003         	goto	u2221
   983  000690                     u2221:
   984  000690  EF69  F003         	goto	l2514
   985  000694                     u2220:
   986  000694                     
   987                           ; BSR set to: 5
   988                           ;Programa_principal.c: 106:             U_t=-U_t+140;
   989  000694  0E00               	movlw	0
   990  000696  6E56               	movwf	___flsub@b^(0+1280),c
   991  000698  0E00               	movlw	0
   992  00069A  6E57               	movwf	(___flsub@b+1)^(0+1280),c
   993  00069C  0E0C               	movlw	12
   994  00069E  6E58               	movwf	(___flsub@b+2)^(0+1280),c
   995  0006A0  0E43               	movlw	67
   996  0006A2  6E59               	movwf	(___flsub@b+3)^(0+1280),c
   997  0006A4  C560  F55A         	movff	_U_t,___flsub@a
   998  0006A8  C561  F55B         	movff	_U_t+1,___flsub@a+1
   999  0006AC  C562  F55C         	movff	_U_t+2,___flsub@a+2
  1000  0006B0  C563  F55D         	movff	_U_t+3,___flsub@a+3
  1001  0006B4  EC25  F00C         	call	___flsub	;wreg free
  1002  0006B8  C556  F560         	movff	?___flsub,_U_t
  1003  0006BC  C557  F561         	movff	?___flsub+1,_U_t+1
  1004  0006C0  C558  F562         	movff	?___flsub+2,_U_t+2
  1005  0006C4  C559  F563         	movff	?___flsub+3,_U_t+3
  1006  0006C8                     
  1007                           ;Programa_principal.c: 107:             LATDbits.LATD0 = 1;
  1008  0006C8  80C1               	bsf	193,0,c	;volatile
  1009  0006CA                     
  1010                           ;Programa_principal.c: 108:             LATDbits.LATD1 = 0;
  1011  0006CA  92C1               	bcf	193,1,c	;volatile
  1012  0006CC                     
  1013                           ;Programa_principal.c: 109:             LATFbits.LATF3 = 1;
  1014  0006CC  86C3               	bsf	195,3,c	;volatile
  1015                           
  1016                           ;Programa_principal.c: 110:         }
  1017  0006CE  EF8D  F003         	goto	l95
  1018  0006D2                     l2514:
  1019                           
  1020                           ; BSR set to: 5
  1021                           ;Programa_principal.c: 112:             if(U_t>=0){
  1022  0006D2  BF63               	btfsc	(_U_t+3)& (0+255),7,b
  1023  0006D4  EF6E  F003         	goto	u2231
  1024  0006D8  EF70  F003         	goto	u2230
  1025  0006DC                     u2231:
  1026  0006DC  EF8D  F003         	goto	l95
  1027  0006E0                     u2230:
  1028  0006E0                     
  1029                           ; BSR set to: 5
  1030                           ;Programa_principal.c: 113:                 U_t+=140;
  1031  0006E0  C560  F546         	movff	_U_t,___fladd@b
  1032  0006E4  C561  F547         	movff	_U_t+1,___fladd@b+1
  1033  0006E8  C562  F548         	movff	_U_t+2,___fladd@b+2
  1034  0006EC  C563  F549         	movff	_U_t+3,___fladd@b+3
  1035  0006F0  0E00               	movlw	0
  1036  0006F2  6E4A               	movwf	___fladd@a^(0+1280),c
  1037  0006F4  0E00               	movlw	0
  1038  0006F6  6E4B               	movwf	(___fladd@a+1)^(0+1280),c
  1039  0006F8  0E0C               	movlw	12
  1040  0006FA  6E4C               	movwf	(___fladd@a+2)^(0+1280),c
  1041  0006FC  0E43               	movlw	67
  1042  0006FE  6E4D               	movwf	(___fladd@a+3)^(0+1280),c
  1043  000700  ECF2  F003         	call	___fladd	;wreg free
  1044  000704  C546  F560         	movff	?___fladd,_U_t
  1045  000708  C547  F561         	movff	?___fladd+1,_U_t+1
  1046  00070C  C548  F562         	movff	?___fladd+2,_U_t+2
  1047  000710  C549  F563         	movff	?___fladd+3,_U_t+3
  1048  000714                     
  1049                           ;Programa_principal.c: 114:                 LATDbits.LATD0 = 0;
  1050  000714  90C1               	bcf	193,0,c	;volatile
  1051  000716                     
  1052                           ;Programa_principal.c: 115:                 LATDbits.LATD1 = 1;
  1053  000716  82C1               	bsf	193,1,c	;volatile
  1054  000718                     
  1055                           ;Programa_principal.c: 116:                 LATFbits.LATF3 = 0;
  1056  000718  96C3               	bcf	195,3,c	;volatile
  1057  00071A                     l95:
  1058                           
  1059                           ;Programa_principal.c: 119:         if(U_t>1023){
  1060  00071A  0E00               	movlw	0
  1061  00071C  6E01               	movwf	___flge@ff1^(0+1280),c
  1062  00071E  0EC0               	movlw	192
  1063  000720  6E02               	movwf	(___flge@ff1+1)^(0+1280),c
  1064  000722  0E7F               	movlw	127
  1065  000724  6E03               	movwf	(___flge@ff1+2)^(0+1280),c
  1066  000726  0E44               	movlw	68
  1067  000728  6E04               	movwf	(___flge@ff1+3)^(0+1280),c
  1068  00072A  C560  F505         	movff	_U_t,___flge@ff2
  1069  00072E  C561  F506         	movff	_U_t+1,___flge@ff2+1
  1070  000732  C562  F507         	movff	_U_t+2,___flge@ff2+2
  1071  000736  C563  F508         	movff	_U_t+3,___flge@ff2+3
  1072  00073A  ECA3  F00B         	call	___flge	;wreg free
  1073  00073E  B0D8               	btfsc	status,0,c
  1074  000740  EFA4  F003         	goto	u2241
  1075  000744  EFA6  F003         	goto	u2240
  1076  000748                     u2241:
  1077  000748  EFAF  F003         	goto	l2526
  1078  00074C                     u2240:
  1079  00074C                     
  1080                           ;Programa_principal.c: 120:             U_t = 1023;
  1081  00074C  0E00               	movlw	0
  1082  00074E  0105               	movlb	5	; () banked
  1083  000750  6F60               	movwf	_U_t& (0+255),b
  1084  000752  0EC0               	movlw	192
  1085  000754  6F61               	movwf	(_U_t+1)& (0+255),b
  1086  000756  0E7F               	movlw	127
  1087  000758  6F62               	movwf	(_U_t+2)& (0+255),b
  1088  00075A  0E44               	movlw	68
  1089  00075C  6F63               	movwf	(_U_t+3)& (0+255),b
  1090  00075E                     l2526:
  1091                           
  1092                           ;Programa_principal.c: 123:         UART_Tx(0x03);
  1093  00075E  0E03               	movlw	3
  1094  000760  EC11  F00D         	call	_UART_Tx
  1095  000764                     
  1096                           ;Programa_principal.c: 126:         UART_Tx(((uint16_t)referencia)& 0x00FF);
  1097  000764  C596  F501         	movff	main@referencia,___fltol@f1
  1098  000768  C597  F502         	movff	main@referencia+1,___fltol@f1+1
  1099  00076C  C598  F503         	movff	main@referencia+2,___fltol@f1+2
  1100  000770  C599  F504         	movff	main@referencia+3,___fltol@f1+3
  1101  000774  EC20  F00B         	call	___fltol	;wreg free
  1102  000778  5001               	movf	?___fltol^(0+1280),w,c
  1103  00077A  EC11  F00D         	call	_UART_Tx
  1104  00077E                     
  1105                           ;Programa_principal.c: 127:         UART_Tx((((uint16_t)referencia)& 0xFF00)>>8);
  1106  00077E  C596  F501         	movff	main@referencia,___fltol@f1
  1107  000782  C597  F502         	movff	main@referencia+1,___fltol@f1+1
  1108  000786  C598  F503         	movff	main@referencia+2,___fltol@f1+2
  1109  00078A  C599  F504         	movff	main@referencia+3,___fltol@f1+3
  1110  00078E  EC20  F00B         	call	___fltol	;wreg free
  1111  000792  C502  F501         	movff	?___fltol+1,?___fltol
  1112  000796  6A02               	clrf	(?___fltol+1)^(0+1280),c
  1113  000798  5001               	movf	?___fltol^(0+1280),w,c
  1114  00079A  EC11  F00D         	call	_UART_Tx
  1115  00079E                     
  1116                           ;Programa_principal.c: 128:         UART_Tx(0xFC);
  1117  00079E  0EFC               	movlw	252
  1118  0007A0  EC11  F00D         	call	_UART_Tx
  1119  0007A4                     
  1120                           ;Programa_principal.c: 129:         PWM_ChangeDuty((uint16_t)U_t);
  1121  0007A4  C560  F501         	movff	_U_t,___fltol@f1
  1122  0007A8  C561  F502         	movff	_U_t+1,___fltol@f1+1
  1123  0007AC  C562  F503         	movff	_U_t+2,___fltol@f1+2
  1124  0007B0  C563  F504         	movff	_U_t+3,___fltol@f1+3
  1125  0007B4  EC20  F00B         	call	___fltol	;wreg free
  1126  0007B8  C501  F50B         	movff	?___fltol,PWM_ChangeDuty@duty
  1127  0007BC  C502  F50C         	movff	?___fltol+1,PWM_ChangeDuty@duty+1
  1128  0007C0  EC26  F00D         	call	_PWM_ChangeDuty	;wreg free
  1129  0007C4                     
  1130                           ;Programa_principal.c: 131:         _delay((unsigned long)((100)*(64000000UL/4000.0)));
  1131  0007C4  0E09               	movlw	9
  1132  0007C6  6E5F               	movwf	(??_main+1)^(0+1280),c
  1133  0007C8  0E1E               	movlw	30
  1134  0007CA  6E5E               	movwf	??_main^(0+1280),c
  1135  0007CC  0EE4               	movlw	228
  1136  0007CE                     u2277:
  1137  0007CE  2EE8               	decfsz	wreg,f,c
  1138  0007D0  D7FE               	bra	u2277
  1139  0007D2  2E5E               	decfsz	??_main^(0+1280),f,c
  1140  0007D4  D7FC               	bra	u2277
  1141  0007D6  2E5F               	decfsz	(??_main+1)^(0+1280),f,c
  1142  0007D8  D7FA               	bra	u2277
  1143  0007DA  D000               	nop2	
  1144  0007DC  EFAE  F001         	goto	l2482
  1145  0007E0  EF7D  F001         	goto	start
  1146  0007E4                     __end_of_main:
  1147                           	callstack 0
  1148                           
  1149 ;; *************** function ___xxtofl *****************
  1150 ;; Defined at:
  1151 ;;		line 10 in file "C:\Program Files\Microchip\xc8\v2.32\pic\sources\c99\common\xxtofl.c"
  1152 ;; Parameters:    Size  Location     Type
  1153 ;;  sign            1    wreg     unsigned char 
  1154 ;;  val             4    5[COMRAM] long 
  1155 ;; Auto vars:     Size  Location     Type
  1156 ;;  sign            1   13[COMRAM] unsigned char 
  1157 ;;  arg             4   15[COMRAM] unsigned long 
  1158 ;;  exp             1   14[COMRAM] unsigned char 
  1159 ;; Return value:  Size  Location     Type
  1160 ;;                  4    5[COMRAM] unsigned char 
  1161 ;; Registers used:
  1162 ;;		wreg, status,2, status,0
  1163 ;; Tracked objects:
  1164 ;;		On entry : 0/0
  1165 ;;		On exit  : 0/0
  1166 ;;		Unchanged: 0/0
  1167 ;; Data sizes:     COMRAM   BANK5   BANK6   BANK7   BANK8   BANK9  BANK10  BANK11  BANK12  BANK13  BANK14  BANK15  BANK1
      +6  BANK17  BANK18  BANK19  BANK20  BANK21  BANK22  BANK23  BANK24  BANK25  BANK26  BANK27  BANK28  BANK29  BANK30  BANK3
      +1  BANK32  BANK33  BANK34  BANK35  BANK36  BANK37
  1168 ;;      Params:         4       0       0       0       0       0       0       0       0       0       0       0       
      +0       0       0       0       0       0       0       0       0       0       0       0       0       0       0       
      +0       0       0       0       0       0       0
  1169 ;;      Locals:         6       0       0       0       0       0       0       0       0       0       0       0       
      +0       0       0       0       0       0       0       0       0       0       0       0       0       0       0       
      +0       0       0       0       0       0       0
  1170 ;;      Temps:          4       0       0       0       0       0       0       0       0       0       0       0       
      +0       0       0       0       0       0       0       0       0       0       0       0       0       0       0       
      +0       0       0       0       0       0       0
  1171 ;;      Totals:        14       0       0       0       0       0       0       0       0       0       0       0       
      +0       0       0       0       0       0       0       0       0       0       0       0       0       0       0       
      +0       0       0       0       0       0       0
  1172 ;;Total ram usage:       14 bytes
  1173 ;; Hardware stack levels used: 1
  1174 ;; Hardware stack levels required when called: 2
  1175 ;; This function calls:
  1176 ;;		Nothing
  1177 ;; This function is called by:
  1178 ;;		_main
  1179 ;; This function uses a non-reentrant model
  1180 ;;
  1181                           
  1182                           	psect	text1
  1183  00148C                     __ptext1:
  1184                           	callstack 0
  1185  00148C                     ___xxtofl:
  1186                           	callstack 124
  1187                           
  1188                           ;incstack = 0
  1189                           ;___xxtofl@sign stored from wreg
  1190  00148C  6E0E               	movwf	___xxtofl@sign^(0+1280),c
  1191  00148E  500E               	movf	___xxtofl@sign^(0+1280),w,c
  1192  001490  B4D8               	btfsc	status,2,c
  1193  001492  EF4D  F00A         	goto	u2101
  1194  001496  EF4F  F00A         	goto	u2100
  1195  00149A                     u2101:
  1196  00149A  EF71  F00A         	goto	l912
  1197  00149E                     u2100:
  1198  00149E  BE09               	btfsc	(___xxtofl@val+3)^(0+1280),7,c
  1199  0014A0  EF56  F00A         	goto	u2110
  1200  0014A4  EF54  F00A         	goto	u2111
  1201  0014A8                     u2111:
  1202  0014A8  EF71  F00A         	goto	l912
  1203  0014AC                     u2110:
  1204  0014AC  C506  F50A         	movff	___xxtofl@val,??___xxtofl
  1205  0014B0  C507  F50B         	movff	___xxtofl@val+1,??___xxtofl+1
  1206  0014B4  C508  F50C         	movff	___xxtofl@val+2,??___xxtofl+2
  1207  0014B8  C509  F50D         	movff	___xxtofl@val+3,??___xxtofl+3
  1208  0014BC  1E0A               	comf	??___xxtofl^(0+1280),f,c
  1209  0014BE  1E0B               	comf	(??___xxtofl+1)^(0+1280),f,c
  1210  0014C0  1E0C               	comf	(??___xxtofl+2)^(0+1280),f,c
  1211  0014C2  1E0D               	comf	(??___xxtofl+3)^(0+1280),f,c
  1212  0014C4  2A0A               	incf	??___xxtofl^(0+1280),f,c
  1213  0014C6  0E00               	movlw	0
  1214  0014C8  220B               	addwfc	(??___xxtofl+1)^(0+1280),f,c
  1215  0014CA  220C               	addwfc	(??___xxtofl+2)^(0+1280),f,c
  1216  0014CC  220D               	addwfc	(??___xxtofl+3)^(0+1280),f,c
  1217  0014CE  C50A  F510         	movff	??___xxtofl,___xxtofl@arg
  1218  0014D2  C50B  F511         	movff	??___xxtofl+1,___xxtofl@arg+1
  1219  0014D6  C50C  F512         	movff	??___xxtofl+2,___xxtofl@arg+2
  1220  0014DA  C50D  F513         	movff	??___xxtofl+3,___xxtofl@arg+3
  1221  0014DE  EF79  F00A         	goto	l2358
  1222  0014E2                     l912:
  1223  0014E2  C506  F510         	movff	___xxtofl@val,___xxtofl@arg
  1224  0014E6  C507  F511         	movff	___xxtofl@val+1,___xxtofl@arg+1
  1225  0014EA  C508  F512         	movff	___xxtofl@val+2,___xxtofl@arg+2
  1226  0014EE  C509  F513         	movff	___xxtofl@val+3,___xxtofl@arg+3
  1227  0014F2                     l2358:
  1228  0014F2  5006               	movf	___xxtofl@val^(0+1280),w,c
  1229  0014F4  1007               	iorwf	(___xxtofl@val+1)^(0+1280),w,c
  1230  0014F6  1008               	iorwf	(___xxtofl@val+2)^(0+1280),w,c
  1231  0014F8  1009               	iorwf	(___xxtofl@val+3)^(0+1280),w,c
  1232  0014FA  A4D8               	btfss	status,2,c
  1233  0014FC  EF82  F00A         	goto	u2121
  1234  001500  EF84  F00A         	goto	u2120
  1235  001504                     u2121:
  1236  001504  EF8E  F00A         	goto	l2364
  1237  001508                     u2120:
  1238  001508  0E00               	movlw	0
  1239  00150A  6E06               	movwf	?___xxtofl^(0+1280),c
  1240  00150C  0E00               	movlw	0
  1241  00150E  6E07               	movwf	(?___xxtofl+1)^(0+1280),c
  1242  001510  0E00               	movlw	0
  1243  001512  6E08               	movwf	(?___xxtofl+2)^(0+1280),c
  1244  001514  0E00               	movlw	0
  1245  001516  6E09               	movwf	(?___xxtofl+3)^(0+1280),c
  1246  001518  EF1F  F00B         	goto	l915
  1247  00151C                     l2364:
  1248  00151C  0E96               	movlw	150
  1249  00151E  6E0F               	movwf	___xxtofl@exp^(0+1280),c
  1250  001520  EF98  F00A         	goto	l2368
  1251  001524                     l2366:
  1252  001524  2A0F               	incf	___xxtofl@exp^(0+1280),f,c
  1253  001526  90D8               	bcf	status,0,c
  1254  001528  3213               	rrcf	(___xxtofl@arg+3)^(0+1280),f,c
  1255  00152A  3212               	rrcf	(___xxtofl@arg+2)^(0+1280),f,c
  1256  00152C  3211               	rrcf	(___xxtofl@arg+1)^(0+1280),f,c
  1257  00152E  3210               	rrcf	___xxtofl@arg^(0+1280),f,c
  1258  001530                     l2368:
  1259  001530  0E00               	movlw	0
  1260  001532  1410               	andwf	___xxtofl@arg^(0+1280),w,c
  1261  001534  6E0A               	movwf	??___xxtofl^(0+1280),c
  1262  001536  0E00               	movlw	0
  1263  001538  1411               	andwf	(___xxtofl@arg+1)^(0+1280),w,c
  1264  00153A  6E0B               	movwf	(??___xxtofl+1)^(0+1280),c
  1265  00153C  0E00               	movlw	0
  1266  00153E  1412               	andwf	(___xxtofl@arg+2)^(0+1280),w,c
  1267  001540  6E0C               	movwf	(??___xxtofl+2)^(0+1280),c
  1268  001542  0EFE               	movlw	254
  1269  001544  1413               	andwf	(___xxtofl@arg+3)^(0+1280),w,c
  1270  001546  6E0D               	movwf	(??___xxtofl+3)^(0+1280),c
  1271  001548  500A               	movf	??___xxtofl^(0+1280),w,c
  1272  00154A  100B               	iorwf	(??___xxtofl+1)^(0+1280),w,c
  1273  00154C  100C               	iorwf	(??___xxtofl+2)^(0+1280),w,c
  1274  00154E  100D               	iorwf	(??___xxtofl+3)^(0+1280),w,c
  1275  001550  A4D8               	btfss	status,2,c
  1276  001552  EFAD  F00A         	goto	u2131
  1277  001556  EFAF  F00A         	goto	u2130
  1278  00155A                     u2131:
  1279  00155A  EF92  F00A         	goto	l2366
  1280  00155E                     u2130:
  1281  00155E  EFBD  F00A         	goto	l919
  1282  001562                     l2370:
  1283  001562  2A0F               	incf	___xxtofl@exp^(0+1280),f,c
  1284  001564  0E01               	movlw	1
  1285  001566  2610               	addwf	___xxtofl@arg^(0+1280),f,c
  1286  001568  0E00               	movlw	0
  1287  00156A  2211               	addwfc	(___xxtofl@arg+1)^(0+1280),f,c
  1288  00156C  2212               	addwfc	(___xxtofl@arg+2)^(0+1280),f,c
  1289  00156E  2213               	addwfc	(___xxtofl@arg+3)^(0+1280),f,c
  1290  001570  90D8               	bcf	status,0,c
  1291  001572  3213               	rrcf	(___xxtofl@arg+3)^(0+1280),f,c
  1292  001574  3212               	rrcf	(___xxtofl@arg+2)^(0+1280),f,c
  1293  001576  3211               	rrcf	(___xxtofl@arg+1)^(0+1280),f,c
  1294  001578  3210               	rrcf	___xxtofl@arg^(0+1280),f,c
  1295  00157A                     l919:
  1296  00157A  0E00               	movlw	0
  1297  00157C  1410               	andwf	___xxtofl@arg^(0+1280),w,c
  1298  00157E  6E0A               	movwf	??___xxtofl^(0+1280),c
  1299  001580  0E00               	movlw	0
  1300  001582  1411               	andwf	(___xxtofl@arg+1)^(0+1280),w,c
  1301  001584  6E0B               	movwf	(??___xxtofl+1)^(0+1280),c
  1302  001586  0E00               	movlw	0
  1303  001588  1412               	andwf	(___xxtofl@arg+2)^(0+1280),w,c
  1304  00158A  6E0C               	movwf	(??___xxtofl+2)^(0+1280),c
  1305  00158C  0EFF               	movlw	255
  1306  00158E  1413               	andwf	(___xxtofl@arg+3)^(0+1280),w,c
  1307  001590  6E0D               	movwf	(??___xxtofl+3)^(0+1280),c
  1308  001592  500A               	movf	??___xxtofl^(0+1280),w,c
  1309  001594  100B               	iorwf	(??___xxtofl+1)^(0+1280),w,c
  1310  001596  100C               	iorwf	(??___xxtofl+2)^(0+1280),w,c
  1311  001598  100D               	iorwf	(??___xxtofl+3)^(0+1280),w,c
  1312  00159A  A4D8               	btfss	status,2,c
  1313  00159C  EFD2  F00A         	goto	u2141
  1314  0015A0  EFD4  F00A         	goto	u2140
  1315  0015A4                     u2141:
  1316  0015A4  EFB1  F00A         	goto	l2370
  1317  0015A8                     u2140:
  1318  0015A8  EFDC  F00A         	goto	l2378
  1319  0015AC                     l2376:
  1320  0015AC  060F               	decf	___xxtofl@exp^(0+1280),f,c
  1321  0015AE  90D8               	bcf	status,0,c
  1322  0015B0  3610               	rlcf	___xxtofl@arg^(0+1280),f,c
  1323  0015B2  3611               	rlcf	(___xxtofl@arg+1)^(0+1280),f,c
  1324  0015B4  3612               	rlcf	(___xxtofl@arg+2)^(0+1280),f,c
  1325  0015B6  3613               	rlcf	(___xxtofl@arg+3)^(0+1280),f,c
  1326  0015B8                     l2378:
  1327  0015B8  BE12               	btfsc	(___xxtofl@arg+2)^(0+1280),7,c
  1328  0015BA  EFE1  F00A         	goto	u2151
  1329  0015BE  EFE3  F00A         	goto	u2150
  1330  0015C2                     u2151:
  1331  0015C2  EFEB  F00A         	goto	l926
  1332  0015C6                     u2150:
  1333  0015C6  0E02               	movlw	2
  1334  0015C8  600F               	cpfslt	___xxtofl@exp^(0+1280),c
  1335  0015CA  EFE9  F00A         	goto	u2161
  1336  0015CE  EFEB  F00A         	goto	u2160
  1337  0015D2                     u2161:
  1338  0015D2  EFD6  F00A         	goto	l2376
  1339  0015D6                     u2160:
  1340  0015D6                     l926:
  1341  0015D6  B00F               	btfsc	___xxtofl@exp^(0+1280),0,c
  1342  0015D8  EFF0  F00A         	goto	u2171
  1343  0015DC  EFF2  F00A         	goto	u2170
  1344  0015E0                     u2171:
  1345  0015E0  EFF3  F00A         	goto	l2384
  1346  0015E4                     u2170:
  1347  0015E4  9E12               	bcf	(___xxtofl@arg+2)^(0+1280),7,c
  1348  0015E6                     l2384:
  1349  0015E6  90D8               	bcf	status,0,c
  1350  0015E8  320F               	rrcf	___xxtofl@exp^(0+1280),f,c
  1351  0015EA  C50F  F50A         	movff	___xxtofl@exp,??___xxtofl
  1352  0015EE  6A0B               	clrf	(??___xxtofl+1)^(0+1280),c
  1353  0015F0  6A0C               	clrf	(??___xxtofl+2)^(0+1280),c
  1354  0015F2  6A0D               	clrf	(??___xxtofl+3)^(0+1280),c
  1355  0015F4  C50A  F50D         	movff	??___xxtofl,??___xxtofl+3
  1356  0015F8  6A0C               	clrf	(??___xxtofl+2)^(0+1280),c
  1357  0015FA  6A0B               	clrf	(??___xxtofl+1)^(0+1280),c
  1358  0015FC  6A0A               	clrf	??___xxtofl^(0+1280),c
  1359  0015FE  500A               	movf	??___xxtofl^(0+1280),w,c
  1360  001600  1210               	iorwf	___xxtofl@arg^(0+1280),f,c
  1361  001602  500B               	movf	(??___xxtofl+1)^(0+1280),w,c
  1362  001604  1211               	iorwf	(___xxtofl@arg+1)^(0+1280),f,c
  1363  001606  500C               	movf	(??___xxtofl+2)^(0+1280),w,c
  1364  001608  1212               	iorwf	(___xxtofl@arg+2)^(0+1280),f,c
  1365  00160A  500D               	movf	(??___xxtofl+3)^(0+1280),w,c
  1366  00160C  1213               	iorwf	(___xxtofl@arg+3)^(0+1280),f,c
  1367  00160E  500E               	movf	___xxtofl@sign^(0+1280),w,c
  1368  001610  B4D8               	btfsc	status,2,c
  1369  001612  EF0D  F00B         	goto	u2181
  1370  001616  EF0F  F00B         	goto	u2180
  1371  00161A                     u2181:
  1372  00161A  EF17  F00B         	goto	l2394
  1373  00161E                     u2180:
  1374  00161E  BE09               	btfsc	(___xxtofl@val+3)^(0+1280),7,c
  1375  001620  EF16  F00B         	goto	u2190
  1376  001624  EF14  F00B         	goto	u2191
  1377  001628                     u2191:
  1378  001628  EF17  F00B         	goto	l2394
  1379  00162C                     u2190:
  1380  00162C  8E13               	bsf	(___xxtofl@arg+3)^(0+1280),7,c
  1381  00162E                     l2394:
  1382  00162E  C510  F506         	movff	___xxtofl@arg,?___xxtofl
  1383  001632  C511  F507         	movff	___xxtofl@arg+1,?___xxtofl+1
  1384  001636  C512  F508         	movff	___xxtofl@arg+2,?___xxtofl+2
  1385  00163A  C513  F509         	movff	___xxtofl@arg+3,?___xxtofl+3
  1386  00163E                     l915:
  1387  00163E  0012               	return		;funcret
  1388  001640                     __end_of___xxtofl:
  1389                           	callstack 0
  1390                           
  1391 ;; *************** function ___fltol *****************
  1392 ;; Defined at:
  1393 ;;		line 43 in file "C:\Program Files\Microchip\xc8\v2.32\pic\sources\c99\common\fltol.c"
  1394 ;; Parameters:    Size  Location     Type
  1395 ;;  f1              4    0[COMRAM] unsigned char 
  1396 ;; Auto vars:     Size  Location     Type
  1397 ;;  exp1            1    9[COMRAM] unsigned char 
  1398 ;;  sign1           1    8[COMRAM] unsigned char 
  1399 ;; Return value:  Size  Location     Type
  1400 ;;                  4    0[COMRAM] long 
  1401 ;; Registers used:
  1402 ;;		wreg, status,2, status,0
  1403 ;; Tracked objects:
  1404 ;;		On entry : 0/0
  1405 ;;		On exit  : 0/0
  1406 ;;		Unchanged: 0/0
  1407 ;; Data sizes:     COMRAM   BANK5   BANK6   BANK7   BANK8   BANK9  BANK10  BANK11  BANK12  BANK13  BANK14  BANK15  BANK1
      +6  BANK17  BANK18  BANK19  BANK20  BANK21  BANK22  BANK23  BANK24  BANK25  BANK26  BANK27  BANK28  BANK29  BANK30  BANK3
      +1  BANK32  BANK33  BANK34  BANK35  BANK36  BANK37
  1408 ;;      Params:         4       0       0       0       0       0       0       0       0       0       0       0       
      +0       0       0       0       0       0       0       0       0       0       0       0       0       0       0       
      +0       0       0       0       0       0       0
  1409 ;;      Locals:         2       0       0       0       0       0       0       0       0       0       0       0       
      +0       0       0       0       0       0       0       0       0       0       0       0       0       0       0       
      +0       0       0       0       0       0       0
  1410 ;;      Temps:          4       0       0       0       0       0       0       0       0       0       0       0       
      +0       0       0       0       0       0       0       0       0       0       0       0       0       0       0       
      +0       0       0       0       0       0       0
  1411 ;;      Totals:        10       0       0       0       0       0       0       0       0       0       0       0       
      +0       0       0       0       0       0       0       0       0       0       0       0       0       0       0       
      +0       0       0       0       0       0       0
  1412 ;;Total ram usage:       10 bytes
  1413 ;; Hardware stack levels used: 1
  1414 ;; Hardware stack levels required when called: 2
  1415 ;; This function calls:
  1416 ;;		Nothing
  1417 ;; This function is called by:
  1418 ;;		_main
  1419 ;; This function uses a non-reentrant model
  1420 ;;
  1421                           
  1422                           	psect	text2
  1423  001640                     __ptext2:
  1424                           	callstack 0
  1425  001640                     ___fltol:
  1426                           	callstack 124
  1427  001640  3403               	rlcf	(___fltol@f1+2)^(0+1280),w,c
  1428  001642  3404               	rlcf	(___fltol@f1+3)^(0+1280),w,c
  1429  001644  6E0A               	movwf	___fltol@exp1^(0+1280),c
  1430  001646  500A               	movf	___fltol@exp1^(0+1280),w,c
  1431  001648  A4D8               	btfss	status,2,c
  1432  00164A  EF29  F00B         	goto	u2031
  1433  00164E  EF2B  F00B         	goto	u2030
  1434  001652                     u2031:
  1435  001652  EF35  F00B         	goto	l2314
  1436  001656                     u2030:
  1437  001656                     l2310:
  1438  001656  0E00               	movlw	0
  1439  001658  6E01               	movwf	?___fltol^(0+1280),c
  1440  00165A  0E00               	movlw	0
  1441  00165C  6E02               	movwf	(?___fltol+1)^(0+1280),c
  1442  00165E  0E00               	movlw	0
  1443  001660  6E03               	movwf	(?___fltol+2)^(0+1280),c
  1444  001662  0E00               	movlw	0
  1445  001664  6E04               	movwf	(?___fltol+3)^(0+1280),c
  1446  001666  EFA2  F00B         	goto	l554
  1447  00166A                     l2314:
  1448  00166A  C501  F505         	movff	___fltol@f1,??___fltol
  1449  00166E  C502  F506         	movff	___fltol@f1+1,??___fltol+1
  1450  001672  C503  F507         	movff	___fltol@f1+2,??___fltol+2
  1451  001676  C504  F508         	movff	___fltol@f1+3,??___fltol+3
  1452  00167A  0E20               	movlw	32
  1453  00167C  EF45  F00B         	goto	u2040
  1454  001680                     u2045:
  1455  001680  90D8               	bcf	status,0,c
  1456  001682  3208               	rrcf	(??___fltol+3)^(0+1280),f,c
  1457  001684  3207               	rrcf	(??___fltol+2)^(0+1280),f,c
  1458  001686  3206               	rrcf	(??___fltol+1)^(0+1280),f,c
  1459  001688  3205               	rrcf	??___fltol^(0+1280),f,c
  1460  00168A                     u2040:
  1461  00168A  2EE8               	decfsz	wreg,f,c
  1462  00168C  EF40  F00B         	goto	u2045
  1463  001690  5005               	movf	??___fltol^(0+1280),w,c
  1464  001692  6E09               	movwf	___fltol@sign1^(0+1280),c
  1465  001694  8E03               	bsf	(___fltol@f1+2)^(0+1280),7,c
  1466  001696  0EFF               	movlw	255
  1467  001698  1601               	andwf	___fltol@f1^(0+1280),f,c
  1468  00169A  0EFF               	movlw	255
  1469  00169C  1602               	andwf	(___fltol@f1+1)^(0+1280),f,c
  1470  00169E  0EFF               	movlw	255
  1471  0016A0  1603               	andwf	(___fltol@f1+2)^(0+1280),f,c
  1472  0016A2  0E00               	movlw	0
  1473  0016A4  1604               	andwf	(___fltol@f1+3)^(0+1280),f,c
  1474  0016A6  0E96               	movlw	150
  1475  0016A8  5E0A               	subwf	___fltol@exp1^(0+1280),f,c
  1476  0016AA  BE0A               	btfsc	___fltol@exp1^(0+1280),7,c
  1477  0016AC  EF5C  F00B         	goto	u2050
  1478  0016B0  EF5A  F00B         	goto	u2051
  1479  0016B4                     u2051:
  1480  0016B4  EF72  F00B         	goto	l2334
  1481  0016B8                     u2050:
  1482  0016B8  500A               	movf	___fltol@exp1^(0+1280),w,c
  1483  0016BA  0A80               	xorlw	128
  1484  0016BC  0F97               	addlw	151
  1485  0016BE  B0D8               	btfsc	status,0,c
  1486  0016C0  EF64  F00B         	goto	u2061
  1487  0016C4  EF66  F00B         	goto	u2060
  1488  0016C8                     u2061:
  1489  0016C8  EF68  F00B         	goto	l2330
  1490  0016CC                     u2060:
  1491  0016CC  EF2B  F00B         	goto	l2310
  1492  0016D0                     l2330:
  1493  0016D0  90D8               	bcf	status,0,c
  1494  0016D2  3204               	rrcf	(___fltol@f1+3)^(0+1280),f,c
  1495  0016D4  3203               	rrcf	(___fltol@f1+2)^(0+1280),f,c
  1496  0016D6  3202               	rrcf	(___fltol@f1+1)^(0+1280),f,c
  1497  0016D8  3201               	rrcf	___fltol@f1^(0+1280),f,c
  1498  0016DA  3E0A               	incfsz	___fltol@exp1^(0+1280),f,c
  1499  0016DC  EF68  F00B         	goto	l2330
  1500  0016E0  EF8A  F00B         	goto	l2344
  1501  0016E4                     l2334:
  1502  0016E4  0E1F               	movlw	31
  1503  0016E6  640A               	cpfsgt	___fltol@exp1^(0+1280),c
  1504  0016E8  EF78  F00B         	goto	u2071
  1505  0016EC  EF7A  F00B         	goto	u2070
  1506  0016F0                     u2071:
  1507  0016F0  EF82  F00B         	goto	l2342
  1508  0016F4                     u2070:
  1509  0016F4  EF2B  F00B         	goto	l2310
  1510  0016F8                     l2340:
  1511  0016F8  90D8               	bcf	status,0,c
  1512  0016FA  3601               	rlcf	___fltol@f1^(0+1280),f,c
  1513  0016FC  3602               	rlcf	(___fltol@f1+1)^(0+1280),f,c
  1514  0016FE  3603               	rlcf	(___fltol@f1+2)^(0+1280),f,c
  1515  001700  3604               	rlcf	(___fltol@f1+3)^(0+1280),f,c
  1516  001702  060A               	decf	___fltol@exp1^(0+1280),f,c
  1517  001704                     l2342:
  1518  001704  500A               	movf	___fltol@exp1^(0+1280),w,c
  1519  001706  A4D8               	btfss	status,2,c
  1520  001708  EF88  F00B         	goto	u2081
  1521  00170C  EF8A  F00B         	goto	u2080
  1522  001710                     u2081:
  1523  001710  EF7C  F00B         	goto	l2340
  1524  001714                     u2080:
  1525  001714                     l2344:
  1526  001714  5009               	movf	___fltol@sign1^(0+1280),w,c
  1527  001716  B4D8               	btfsc	status,2,c
  1528  001718  EF90  F00B         	goto	u2091
  1529  00171C  EF92  F00B         	goto	u2090
  1530  001720                     u2091:
  1531  001720  EF9A  F00B         	goto	l2348
  1532  001724                     u2090:
  1533  001724  1E04               	comf	(___fltol@f1+3)^(0+1280),f,c
  1534  001726  1E03               	comf	(___fltol@f1+2)^(0+1280),f,c
  1535  001728  1E02               	comf	(___fltol@f1+1)^(0+1280),f,c
  1536  00172A  6C01               	negf	___fltol@f1^(0+1280),c
  1537  00172C  0E00               	movlw	0
  1538  00172E  2202               	addwfc	(___fltol@f1+1)^(0+1280),f,c
  1539  001730  2203               	addwfc	(___fltol@f1+2)^(0+1280),f,c
  1540  001732  2204               	addwfc	(___fltol@f1+3)^(0+1280),f,c
  1541  001734                     l2348:
  1542  001734  C501  F501         	movff	___fltol@f1,?___fltol
  1543  001738  C502  F502         	movff	___fltol@f1+1,?___fltol+1
  1544  00173C  C503  F503         	movff	___fltol@f1+2,?___fltol+2
  1545  001740  C504  F504         	movff	___fltol@f1+3,?___fltol+3
  1546  001744                     l554:
  1547  001744  0012               	return		;funcret
  1548  001746                     __end_of___fltol:
  1549                           	callstack 0
  1550                           
  1551 ;; *************** function ___flsub *****************
  1552 ;; Defined at:
  1553 ;;		line 245 in file "C:\Program Files\Microchip\xc8\v2.32\pic\sources\c99\common\sprcadd.c"
  1554 ;; Parameters:    Size  Location     Type
  1555 ;;  b               4   85[COMRAM] long 
  1556 ;;  a               4   89[COMRAM] long 
  1557 ;; Auto vars:     Size  Location     Type
  1558 ;;		None
  1559 ;; Return value:  Size  Location     Type
  1560 ;;                  4   85[COMRAM] long 
  1561 ;; Registers used:
  1562 ;;		wreg, status,2, status,0, cstack
  1563 ;; Tracked objects:
  1564 ;;		On entry : 0/0
  1565 ;;		On exit  : 0/0
  1566 ;;		Unchanged: 0/0
  1567 ;; Data sizes:     COMRAM   BANK5   BANK6   BANK7   BANK8   BANK9  BANK10  BANK11  BANK12  BANK13  BANK14  BANK15  BANK1
      +6  BANK17  BANK18  BANK19  BANK20  BANK21  BANK22  BANK23  BANK24  BANK25  BANK26  BANK27  BANK28  BANK29  BANK30  BANK3
      +1  BANK32  BANK33  BANK34  BANK35  BANK36  BANK37
  1568 ;;      Params:         8       0       0       0       0       0       0       0       0       0       0       0       
      +0       0       0       0       0       0       0       0       0       0       0       0       0       0       0       
      +0       0       0       0       0       0       0
  1569 ;;      Locals:         0       0       0       0       0       0       0       0       0       0       0       0       
      +0       0       0       0       0       0       0       0       0       0       0       0       0       0       0       
      +0       0       0       0       0       0       0
  1570 ;;      Temps:          0       0       0       0       0       0       0       0       0       0       0       0       
      +0       0       0       0       0       0       0       0       0       0       0       0       0       0       0       
      +0       0       0       0       0       0       0
  1571 ;;      Totals:         8       0       0       0       0       0       0       0       0       0       0       0       
      +0       0       0       0       0       0       0       0       0       0       0       0       0       0       0       
      +0       0       0       0       0       0       0
  1572 ;;Total ram usage:        8 bytes
  1573 ;; Hardware stack levels used: 1
  1574 ;; Hardware stack levels required when called: 3
  1575 ;; This function calls:
  1576 ;;		___fladd
  1577 ;; This function is called by:
  1578 ;;		_main
  1579 ;; This function uses a non-reentrant model
  1580 ;;
  1581                           
  1582                           	psect	text3
  1583  00184A                     __ptext3:
  1584                           	callstack 0
  1585  00184A                     ___flsub:
  1586                           	callstack 123
  1587  00184A  0E00               	movlw	0
  1588  00184C  1A5A               	xorwf	___flsub@a^(0+1280),f,c
  1589  00184E  0E00               	movlw	0
  1590  001850  1A5B               	xorwf	(___flsub@a+1)^(0+1280),f,c
  1591  001852  0E00               	movlw	0
  1592  001854  1A5C               	xorwf	(___flsub@a+2)^(0+1280),f,c
  1593  001856  0E80               	movlw	128
  1594  001858  1A5D               	xorwf	(___flsub@a+3)^(0+1280),f,c
  1595  00185A  C556  F546         	movff	___flsub@b,___fladd@b
  1596  00185E  C557  F547         	movff	___flsub@b+1,___fladd@b+1
  1597  001862  C558  F548         	movff	___flsub@b+2,___fladd@b+2
  1598  001866  C559  F549         	movff	___flsub@b+3,___fladd@b+3
  1599  00186A  C55A  F54A         	movff	___flsub@a,___fladd@a
  1600  00186E  C55B  F54B         	movff	___flsub@a+1,___fladd@a+1
  1601  001872  C55C  F54C         	movff	___flsub@a+2,___fladd@a+2
  1602  001876  C55D  F54D         	movff	___flsub@a+3,___fladd@a+3
  1603  00187A  ECF2  F003         	call	___fladd	;wreg free
  1604  00187E  C546  F556         	movff	?___fladd,?___flsub
  1605  001882  C547  F557         	movff	?___fladd+1,?___flsub+1
  1606  001886  C548  F558         	movff	?___fladd+2,?___flsub+2
  1607  00188A  C549  F559         	movff	?___fladd+3,?___flsub+3
  1608  00188E  0012               	return		;funcret
  1609  001890                     __end_of___flsub:
  1610                           	callstack 0
  1611                           
  1612 ;; *************** function ___fladd *****************
  1613 ;; Defined at:
  1614 ;;		line 10 in file "C:\Program Files\Microchip\xc8\v2.32\pic\sources\c99\common\sprcadd.c"
  1615 ;; Parameters:    Size  Location     Type
  1616 ;;  b               4   69[COMRAM] long 
  1617 ;;  a               4   73[COMRAM] long 
  1618 ;; Auto vars:     Size  Location     Type
  1619 ;;  grs             1   84[COMRAM] unsigned char 
  1620 ;;  bexp            1   83[COMRAM] unsigned char 
  1621 ;;  aexp            1   82[COMRAM] unsigned char 
  1622 ;;  signs           1   81[COMRAM] unsigned char 
  1623 ;; Return value:  Size  Location     Type
  1624 ;;                  4   69[COMRAM] unsigned char 
  1625 ;; Registers used:
  1626 ;;		wreg, status,2, status,0
  1627 ;; Tracked objects:
  1628 ;;		On entry : 0/0
  1629 ;;		On exit  : 0/0
  1630 ;;		Unchanged: 0/0
  1631 ;; Data sizes:     COMRAM   BANK5   BANK6   BANK7   BANK8   BANK9  BANK10  BANK11  BANK12  BANK13  BANK14  BANK15  BANK1
      +6  BANK17  BANK18  BANK19  BANK20  BANK21  BANK22  BANK23  BANK24  BANK25  BANK26  BANK27  BANK28  BANK29  BANK30  BANK3
      +1  BANK32  BANK33  BANK34  BANK35  BANK36  BANK37
  1632 ;;      Params:         8       0       0       0       0       0       0       0       0       0       0       0       
      +0       0       0       0       0       0       0       0       0       0       0       0       0       0       0       
      +0       0       0       0       0       0       0
  1633 ;;      Locals:         4       0       0       0       0       0       0       0       0       0       0       0       
      +0       0       0       0       0       0       0       0       0       0       0       0       0       0       0       
      +0       0       0       0       0       0       0
  1634 ;;      Temps:          4       0       0       0       0       0       0       0       0       0       0       0       
      +0       0       0       0       0       0       0       0       0       0       0       0       0       0       0       
      +0       0       0       0       0       0       0
  1635 ;;      Totals:        16       0       0       0       0       0       0       0       0       0       0       0       
      +0       0       0       0       0       0       0       0       0       0       0       0       0       0       0       
      +0       0       0       0       0       0       0
  1636 ;;Total ram usage:       16 bytes
  1637 ;; Hardware stack levels used: 1
  1638 ;; Hardware stack levels required when called: 2
  1639 ;; This function calls:
  1640 ;;		Nothing
  1641 ;; This function is called by:
  1642 ;;		_main
  1643 ;;		___flsub
  1644 ;; This function uses a non-reentrant model
  1645 ;;
  1646                           
  1647                           	psect	text4
  1648  0007E4                     __ptext4:
  1649                           	callstack 0
  1650  0007E4                     ___fladd:
  1651                           	callstack 123
  1652  0007E4  5049               	movf	(___fladd@b+3)^(0+1280),w,c
  1653  0007E6  0B80               	andlw	128
  1654  0007E8  6E52               	movwf	___fladd@signs^(0+1280),c
  1655  0007EA  5049               	movf	(___fladd@b+3)^(0+1280),w,c
  1656  0007EC  2449               	addwf	(___fladd@b+3)^(0+1280),w,c
  1657  0007EE  6E54               	movwf	___fladd@bexp^(0+1280),c
  1658  0007F0  AE48               	btfss	(___fladd@b+2)^(0+1280),7,c
  1659  0007F2  EFFD  F003         	goto	u1141
  1660  0007F6  EFFF  F003         	goto	u1140
  1661  0007FA                     u1141:
  1662  0007FA  EF00  F004         	goto	l1750
  1663  0007FE                     u1140:
  1664  0007FE  8054               	bsf	___fladd@bexp^(0+1280),0,c
  1665  000800                     l1750:
  1666  000800  5054               	movf	___fladd@bexp^(0+1280),w,c
  1667  000802  B4D8               	btfsc	status,2,c
  1668  000804  EF06  F004         	goto	u1151
  1669  000808  EF08  F004         	goto	u1150
  1670  00080C                     u1151:
  1671  00080C  EF1D  F004         	goto	l1760
  1672  000810                     u1150:
  1673  000810  2854               	incf	___fladd@bexp^(0+1280),w,c
  1674  000812  A4D8               	btfss	status,2,c
  1675  000814  EF0E  F004         	goto	u1161
  1676  000818  EF10  F004         	goto	u1160
  1677  00081C                     u1161:
  1678  00081C  EF18  F004         	goto	l1756
  1679  000820                     u1160:
  1680  000820  0E00               	movlw	0
  1681  000822  6E46               	movwf	___fladd@b^(0+1280),c
  1682  000824  0E00               	movlw	0
  1683  000826  6E47               	movwf	(___fladd@b+1)^(0+1280),c
  1684  000828  0E00               	movlw	0
  1685  00082A  6E48               	movwf	(___fladd@b+2)^(0+1280),c
  1686  00082C  0E00               	movlw	0
  1687  00082E  6E49               	movwf	(___fladd@b+3)^(0+1280),c
  1688  000830                     l1756:
  1689  000830  8E48               	bsf	(___fladd@b+2)^(0+1280),7,c
  1690  000832  0E00               	movlw	0
  1691  000834  6E49               	movwf	(___fladd@b+3)^(0+1280),c
  1692  000836  EF25  F004         	goto	l1762
  1693  00083A                     l1760:
  1694  00083A  0E00               	movlw	0
  1695  00083C  6E46               	movwf	___fladd@b^(0+1280),c
  1696  00083E  0E00               	movlw	0
  1697  000840  6E47               	movwf	(___fladd@b+1)^(0+1280),c
  1698  000842  0E00               	movlw	0
  1699  000844  6E48               	movwf	(___fladd@b+2)^(0+1280),c
  1700  000846  0E00               	movlw	0
  1701  000848  6E49               	movwf	(___fladd@b+3)^(0+1280),c
  1702  00084A                     l1762:
  1703  00084A  504D               	movf	(___fladd@a+3)^(0+1280),w,c
  1704  00084C  0B80               	andlw	128
  1705  00084E  6E53               	movwf	___fladd@aexp^(0+1280),c
  1706  000850  5052               	movf	___fladd@signs^(0+1280),w,c
  1707  000852  1853               	xorwf	___fladd@aexp^(0+1280),w,c
  1708  000854  B4D8               	btfsc	status,2,c
  1709  000856  EF2F  F004         	goto	u1171
  1710  00085A  EF31  F004         	goto	u1170
  1711  00085E                     u1171:
  1712  00085E  EF32  F004         	goto	l1768
  1713  000862                     u1170:
  1714  000862  8C52               	bsf	___fladd@signs^(0+1280),6,c
  1715  000864                     l1768:
  1716  000864  504D               	movf	(___fladd@a+3)^(0+1280),w,c
  1717  000866  244D               	addwf	(___fladd@a+3)^(0+1280),w,c
  1718  000868  6E53               	movwf	___fladd@aexp^(0+1280),c
  1719  00086A  AE4C               	btfss	(___fladd@a+2)^(0+1280),7,c
  1720  00086C  EF3A  F004         	goto	u1181
  1721  000870  EF3C  F004         	goto	u1180
  1722  000874                     u1181:
  1723  000874  EF3D  F004         	goto	l1774
  1724  000878                     u1180:
  1725  000878  8053               	bsf	___fladd@aexp^(0+1280),0,c
  1726  00087A                     l1774:
  1727  00087A  5053               	movf	___fladd@aexp^(0+1280),w,c
  1728  00087C  B4D8               	btfsc	status,2,c
  1729  00087E  EF43  F004         	goto	u1191
  1730  000882  EF45  F004         	goto	u1190
  1731  000886                     u1191:
  1732  000886  EF5A  F004         	goto	l1784
  1733  00088A                     u1190:
  1734  00088A  2853               	incf	___fladd@aexp^(0+1280),w,c
  1735  00088C  A4D8               	btfss	status,2,c
  1736  00088E  EF4B  F004         	goto	u1201
  1737  000892  EF4D  F004         	goto	u1200
  1738  000896                     u1201:
  1739  000896  EF55  F004         	goto	l1780
  1740  00089A                     u1200:
  1741  00089A  0E00               	movlw	0
  1742  00089C  6E4A               	movwf	___fladd@a^(0+1280),c
  1743  00089E  0E00               	movlw	0
  1744  0008A0  6E4B               	movwf	(___fladd@a+1)^(0+1280),c
  1745  0008A2  0E00               	movlw	0
  1746  0008A4  6E4C               	movwf	(___fladd@a+2)^(0+1280),c
  1747  0008A6  0E00               	movlw	0
  1748  0008A8  6E4D               	movwf	(___fladd@a+3)^(0+1280),c
  1749  0008AA                     l1780:
  1750  0008AA  8E4C               	bsf	(___fladd@a+2)^(0+1280),7,c
  1751  0008AC  0E00               	movlw	0
  1752  0008AE  6E4D               	movwf	(___fladd@a+3)^(0+1280),c
  1753  0008B0  EF62  F004         	goto	l1786
  1754  0008B4                     l1784:
  1755  0008B4  0E00               	movlw	0
  1756  0008B6  6E4A               	movwf	___fladd@a^(0+1280),c
  1757  0008B8  0E00               	movlw	0
  1758  0008BA  6E4B               	movwf	(___fladd@a+1)^(0+1280),c
  1759  0008BC  0E00               	movlw	0
  1760  0008BE  6E4C               	movwf	(___fladd@a+2)^(0+1280),c
  1761  0008C0  0E00               	movlw	0
  1762  0008C2  6E4D               	movwf	(___fladd@a+3)^(0+1280),c
  1763  0008C4                     l1786:
  1764  0008C4  5054               	movf	___fladd@bexp^(0+1280),w,c
  1765  0008C6  5C53               	subwf	___fladd@aexp^(0+1280),w,c
  1766  0008C8  B0D8               	btfsc	status,0,c
  1767  0008CA  EF69  F004         	goto	u1211
  1768  0008CE  EF6B  F004         	goto	u1210
  1769  0008D2                     u1211:
  1770  0008D2  EF92  F004         	goto	l1822
  1771  0008D6                     u1210:
  1772  0008D6  AC52               	btfss	___fladd@signs^(0+1280),6,c
  1773  0008D8  EF70  F004         	goto	u1221
  1774  0008DC  EF72  F004         	goto	u1220
  1775  0008E0                     u1221:
  1776  0008E0  EF74  F004         	goto	l1792
  1777  0008E4                     u1220:
  1778  0008E4  0E80               	movlw	128
  1779  0008E6  1A52               	xorwf	___fladd@signs^(0+1280),f,c
  1780  0008E8                     l1792:
  1781  0008E8  C554  F555         	movff	___fladd@bexp,___fladd@grs
  1782  0008EC  C553  F554         	movff	___fladd@aexp,___fladd@bexp
  1783  0008F0  C555  F553         	movff	___fladd@grs,___fladd@aexp
  1784  0008F4  C546  F555         	movff	___fladd@b,___fladd@grs
  1785  0008F8  C54A  F546         	movff	___fladd@a,___fladd@b
  1786  0008FC  C555  F54A         	movff	___fladd@grs,___fladd@a
  1787  000900  C547  F555         	movff	___fladd@b+1,___fladd@grs
  1788  000904  C54B  F547         	movff	___fladd@a+1,___fladd@b+1
  1789  000908  C555  F54B         	movff	___fladd@grs,___fladd@a+1
  1790  00090C  C548  F555         	movff	___fladd@b+2,___fladd@grs
  1791  000910  C54C  F548         	movff	___fladd@a+2,___fladd@b+2
  1792  000914  C555  F54C         	movff	___fladd@grs,___fladd@a+2
  1793  000918  C549  F555         	movff	___fladd@b+3,___fladd@grs
  1794  00091C  C54D  F549         	movff	___fladd@a+3,___fladd@b+3
  1795  000920  C555  F54D         	movff	___fladd@grs,___fladd@a+3
  1796  000924                     l1822:
  1797  000924  0E00               	movlw	0
  1798  000926  6E55               	movwf	___fladd@grs^(0+1280),c
  1799  000928  5054               	movf	___fladd@bexp^(0+1280),w,c
  1800  00092A  C553  F54E         	movff	___fladd@aexp,??___fladd
  1801  00092E  6A4F               	clrf	(??___fladd+1)^(0+1280),c
  1802  000930  5E4E               	subwf	??___fladd^(0+1280),f,c
  1803  000932  0E00               	movlw	0
  1804  000934  5A4F               	subwfb	(??___fladd+1)^(0+1280),f,c
  1805  000936  BE4F               	btfsc	(??___fladd+1)^(0+1280),7,c
  1806  000938  EFA7  F004         	goto	u1231
  1807  00093C  504F               	movf	(??___fladd+1)^(0+1280),w,c
  1808  00093E  E109               	bnz	u1230
  1809  000940  0E1A               	movlw	26
  1810  000942  5C4E               	subwf	??___fladd^(0+1280),w,c
  1811  000944  A0D8               	btfss	status,0,c
  1812  000946  EFA7  F004         	goto	u1231
  1813  00094A  EFA9  F004         	goto	u1230
  1814  00094E                     u1231:
  1815  00094E  EFE0  F004         	goto	l786
  1816  000952                     u1230:
  1817  000952  5046               	movf	___fladd@b^(0+1280),w,c
  1818  000954  1047               	iorwf	(___fladd@b+1)^(0+1280),w,c
  1819  000956  1048               	iorwf	(___fladd@b+2)^(0+1280),w,c
  1820  000958  1049               	iorwf	(___fladd@b+3)^(0+1280),w,c
  1821  00095A  A4D8               	btfss	status,2,c
  1822  00095C  EFB2  F004         	goto	u1241
  1823  000960  EFB5  F004         	goto	u1240
  1824  000964                     u1241:
  1825  000964  0E01               	movlw	1
  1826  000966  EFB6  F004         	goto	u1250
  1827  00096A                     u1240:
  1828  00096A  0E00               	movlw	0
  1829  00096C                     u1250:
  1830  00096C  6E55               	movwf	___fladd@grs^(0+1280),c
  1831  00096E  0E00               	movlw	0
  1832  000970  6E46               	movwf	___fladd@b^(0+1280),c
  1833  000972  0E00               	movlw	0
  1834  000974  6E47               	movwf	(___fladd@b+1)^(0+1280),c
  1835  000976  0E00               	movlw	0
  1836  000978  6E48               	movwf	(___fladd@b+2)^(0+1280),c
  1837  00097A  0E00               	movlw	0
  1838  00097C  6E49               	movwf	(___fladd@b+3)^(0+1280),c
  1839  00097E  C553  F554         	movff	___fladd@aexp,___fladd@bexp
  1840  000982  EFE9  F004         	goto	l785
  1841  000986                     l787:
  1842  000986  A055               	btfss	___fladd@grs^(0+1280),0,c
  1843  000988  EFC8  F004         	goto	u1261
  1844  00098C  EFCA  F004         	goto	u1260
  1845  000990                     u1261:
  1846  000990  EFD0  F004         	goto	l1834
  1847  000994                     u1260:
  1848  000994  90D8               	bcf	status,0,c
  1849  000996  3055               	rrcf	___fladd@grs^(0+1280),w,c
  1850  000998  0901               	iorlw	1
  1851  00099A  6E55               	movwf	___fladd@grs^(0+1280),c
  1852  00099C  EFD2  F004         	goto	l1836
  1853  0009A0                     l1834:
  1854  0009A0  90D8               	bcf	status,0,c
  1855  0009A2  3255               	rrcf	___fladd@grs^(0+1280),f,c
  1856  0009A4                     l1836:
  1857  0009A4  A046               	btfss	___fladd@b^(0+1280),0,c
  1858  0009A6  EFD7  F004         	goto	u1271
  1859  0009AA  EFD9  F004         	goto	u1270
  1860  0009AE                     u1271:
  1861  0009AE  EFDA  F004         	goto	l1840
  1862  0009B2                     u1270:
  1863  0009B2  8E55               	bsf	___fladd@grs^(0+1280),7,c
  1864  0009B4                     l1840:
  1865  0009B4  3449               	rlcf	(___fladd@b+3)^(0+1280),w,c
  1866  0009B6  3249               	rrcf	(___fladd@b+3)^(0+1280),f,c
  1867  0009B8  3248               	rrcf	(___fladd@b+2)^(0+1280),f,c
  1868  0009BA  3247               	rrcf	(___fladd@b+1)^(0+1280),f,c
  1869  0009BC  3246               	rrcf	___fladd@b^(0+1280),f,c
  1870  0009BE  2A54               	incf	___fladd@bexp^(0+1280),f,c
  1871  0009C0                     l786:
  1872  0009C0  5053               	movf	___fladd@aexp^(0+1280),w,c
  1873  0009C2  5C54               	subwf	___fladd@bexp^(0+1280),w,c
  1874  0009C4  A0D8               	btfss	status,0,c
  1875  0009C6  EFE7  F004         	goto	u1281
  1876  0009CA  EFE9  F004         	goto	u1280
  1877  0009CE                     u1281:
  1878  0009CE  EFC3  F004         	goto	l787
  1879  0009D2                     u1280:
  1880  0009D2                     l785:
  1881  0009D2  BC52               	btfsc	___fladd@signs^(0+1280),6,c
  1882  0009D4  EFEE  F004         	goto	u1291
  1883  0009D8  EFF0  F004         	goto	u1290
  1884  0009DC                     u1291:
  1885  0009DC  EF30  F005         	goto	l1868
  1886  0009E0                     u1290:
  1887  0009E0  5054               	movf	___fladd@bexp^(0+1280),w,c
  1888  0009E2  A4D8               	btfss	status,2,c
  1889  0009E4  EFF6  F004         	goto	u1301
  1890  0009E8  EFF8  F004         	goto	u1300
  1891  0009EC                     u1301:
  1892  0009EC  EF02  F005         	goto	l1850
  1893  0009F0                     u1300:
  1894  0009F0  0E00               	movlw	0
  1895  0009F2  6E46               	movwf	?___fladd^(0+1280),c
  1896  0009F4  0E00               	movlw	0
  1897  0009F6  6E47               	movwf	(?___fladd+1)^(0+1280),c
  1898  0009F8  0E00               	movlw	0
  1899  0009FA  6E48               	movwf	(?___fladd+2)^(0+1280),c
  1900  0009FC  0E00               	movlw	0
  1901  0009FE  6E49               	movwf	(?___fladd+3)^(0+1280),c
  1902  000A00  EF51  F006         	goto	l794
  1903  000A04                     l1850:
  1904  000A04  504A               	movf	___fladd@a^(0+1280),w,c
  1905  000A06  2646               	addwf	___fladd@b^(0+1280),f,c
  1906  000A08  504B               	movf	(___fladd@a+1)^(0+1280),w,c
  1907  000A0A  2247               	addwfc	(___fladd@b+1)^(0+1280),f,c
  1908  000A0C  504C               	movf	(___fladd@a+2)^(0+1280),w,c
  1909  000A0E  2248               	addwfc	(___fladd@b+2)^(0+1280),f,c
  1910  000A10  504D               	movf	(___fladd@a+3)^(0+1280),w,c
  1911  000A12  2249               	addwfc	(___fladd@b+3)^(0+1280),f,c
  1912  000A14  A049               	btfss	(___fladd@b+3)^(0+1280),0,c
  1913  000A16  EF0F  F005         	goto	u1311
  1914  000A1A  EF11  F005         	goto	u1310
  1915  000A1E                     u1311:
  1916  000A1E  EFBD  F005         	goto	l1904
  1917  000A22                     u1310:
  1918  000A22  A055               	btfss	___fladd@grs^(0+1280),0,c
  1919  000A24  EF16  F005         	goto	u1321
  1920  000A28  EF18  F005         	goto	u1320
  1921  000A2C                     u1321:
  1922  000A2C  EF1E  F005         	goto	l1858
  1923  000A30                     u1320:
  1924  000A30  90D8               	bcf	status,0,c
  1925  000A32  3055               	rrcf	___fladd@grs^(0+1280),w,c
  1926  000A34  0901               	iorlw	1
  1927  000A36  6E55               	movwf	___fladd@grs^(0+1280),c
  1928  000A38  EF20  F005         	goto	l1860
  1929  000A3C                     l1858:
  1930  000A3C  90D8               	bcf	status,0,c
  1931  000A3E  3255               	rrcf	___fladd@grs^(0+1280),f,c
  1932  000A40                     l1860:
  1933  000A40  A046               	btfss	___fladd@b^(0+1280),0,c
  1934  000A42  EF25  F005         	goto	u1331
  1935  000A46  EF27  F005         	goto	u1330
  1936  000A4A                     u1331:
  1937  000A4A  EF28  F005         	goto	l1864
  1938  000A4E                     u1330:
  1939  000A4E  8E55               	bsf	___fladd@grs^(0+1280),7,c
  1940  000A50                     l1864:
  1941  000A50  3449               	rlcf	(___fladd@b+3)^(0+1280),w,c
  1942  000A52  3249               	rrcf	(___fladd@b+3)^(0+1280),f,c
  1943  000A54  3248               	rrcf	(___fladd@b+2)^(0+1280),f,c
  1944  000A56  3247               	rrcf	(___fladd@b+1)^(0+1280),f,c
  1945  000A58  3246               	rrcf	___fladd@b^(0+1280),f,c
  1946  000A5A  2A54               	incf	___fladd@bexp^(0+1280),f,c
  1947  000A5C  EFBD  F005         	goto	l1904
  1948  000A60                     l1868:
  1949  000A60  504A               	movf	___fladd@a^(0+1280),w,c
  1950  000A62  5C46               	subwf	___fladd@b^(0+1280),w,c
  1951  000A64  504B               	movf	(___fladd@a+1)^(0+1280),w,c
  1952  000A66  5847               	subwfb	(___fladd@b+1)^(0+1280),w,c
  1953  000A68  504C               	movf	(___fladd@a+2)^(0+1280),w,c
  1954  000A6A  5848               	subwfb	(___fladd@b+2)^(0+1280),w,c
  1955  000A6C  5049               	movf	(___fladd@b+3)^(0+1280),w,c
  1956  000A6E  0A80               	xorlw	128
  1957  000A70  6E4E               	movwf	??___fladd^(0+1280),c
  1958  000A72  504D               	movf	(___fladd@a+3)^(0+1280),w,c
  1959  000A74  0A80               	xorlw	128
  1960  000A76  584E               	subwfb	??___fladd^(0+1280),w,c
  1961  000A78  B0D8               	btfsc	status,0,c
  1962  000A7A  EF41  F005         	goto	u1341
  1963  000A7E  EF43  F005         	goto	u1340
  1964  000A82                     u1341:
  1965  000A82  EF6E  F005         	goto	l1878
  1966  000A86                     u1340:
  1967  000A86  5046               	movf	___fladd@b^(0+1280),w,c
  1968  000A88  5C4A               	subwf	___fladd@a^(0+1280),w,c
  1969  000A8A  6E4E               	movwf	??___fladd^(0+1280),c
  1970  000A8C  5047               	movf	(___fladd@b+1)^(0+1280),w,c
  1971  000A8E  584B               	subwfb	(___fladd@a+1)^(0+1280),w,c
  1972  000A90  6E4F               	movwf	(??___fladd+1)^(0+1280),c
  1973  000A92  5048               	movf	(___fladd@b+2)^(0+1280),w,c
  1974  000A94  584C               	subwfb	(___fladd@a+2)^(0+1280),w,c
  1975  000A96  6E50               	movwf	(??___fladd+2)^(0+1280),c
  1976  000A98  5049               	movf	(___fladd@b+3)^(0+1280),w,c
  1977  000A9A  584D               	subwfb	(___fladd@a+3)^(0+1280),w,c
  1978  000A9C  6E51               	movwf	(??___fladd+3)^(0+1280),c
  1979  000A9E  0EFF               	movlw	255
  1980  000AA0  244E               	addwf	??___fladd^(0+1280),w,c
  1981  000AA2  6E46               	movwf	___fladd@b^(0+1280),c
  1982  000AA4  0EFF               	movlw	255
  1983  000AA6  204F               	addwfc	(??___fladd+1)^(0+1280),w,c
  1984  000AA8  6E47               	movwf	(___fladd@b+1)^(0+1280),c
  1985  000AAA  0EFF               	movlw	255
  1986  000AAC  2050               	addwfc	(??___fladd+2)^(0+1280),w,c
  1987  000AAE  6E48               	movwf	(___fladd@b+2)^(0+1280),c
  1988  000AB0  0EFF               	movlw	255
  1989  000AB2  2051               	addwfc	(??___fladd+3)^(0+1280),w,c
  1990  000AB4  6E49               	movwf	(___fladd@b+3)^(0+1280),c
  1991  000AB6  0E80               	movlw	128
  1992  000AB8  1A52               	xorwf	___fladd@signs^(0+1280),f,c
  1993  000ABA  6C55               	negf	___fladd@grs^(0+1280),c
  1994  000ABC  5055               	movf	___fladd@grs^(0+1280),w,c
  1995  000ABE  A4D8               	btfss	status,2,c
  1996  000AC0  EF64  F005         	goto	u1351
  1997  000AC4  EF66  F005         	goto	u1350
  1998  000AC8                     u1351:
  1999  000AC8  EF76  F005         	goto	l802
  2000  000ACC                     u1350:
  2001  000ACC  0E01               	movlw	1
  2002  000ACE  2646               	addwf	___fladd@b^(0+1280),f,c
  2003  000AD0  0E00               	movlw	0
  2004  000AD2  2247               	addwfc	(___fladd@b+1)^(0+1280),f,c
  2005  000AD4  2248               	addwfc	(___fladd@b+2)^(0+1280),f,c
  2006  000AD6  2249               	addwfc	(___fladd@b+3)^(0+1280),f,c
  2007  000AD8  EF76  F005         	goto	l802
  2008  000ADC                     l1878:
  2009  000ADC  504A               	movf	___fladd@a^(0+1280),w,c
  2010  000ADE  5E46               	subwf	___fladd@b^(0+1280),f,c
  2011  000AE0  504B               	movf	(___fladd@a+1)^(0+1280),w,c
  2012  000AE2  5A47               	subwfb	(___fladd@b+1)^(0+1280),f,c
  2013  000AE4  504C               	movf	(___fladd@a+2)^(0+1280),w,c
  2014  000AE6  5A48               	subwfb	(___fladd@b+2)^(0+1280),f,c
  2015  000AE8  504D               	movf	(___fladd@a+3)^(0+1280),w,c
  2016  000AEA  5A49               	subwfb	(___fladd@b+3)^(0+1280),f,c
  2017  000AEC                     l802:
  2018  000AEC  5046               	movf	___fladd@b^(0+1280),w,c
  2019  000AEE  1047               	iorwf	(___fladd@b+1)^(0+1280),w,c
  2020  000AF0  1048               	iorwf	(___fladd@b+2)^(0+1280),w,c
  2021  000AF2  1049               	iorwf	(___fladd@b+3)^(0+1280),w,c
  2022  000AF4  A4D8               	btfss	status,2,c
  2023  000AF6  EF7F  F005         	goto	u1361
  2024  000AFA  EF81  F005         	goto	u1360
  2025  000AFE                     u1361:
  2026  000AFE  EFB6  F005         	goto	l1902
  2027  000B02                     u1360:
  2028  000B02  5055               	movf	___fladd@grs^(0+1280),w,c
  2029  000B04  A4D8               	btfss	status,2,c
  2030  000B06  EF87  F005         	goto	u1371
  2031  000B0A  EF89  F005         	goto	u1370
  2032  000B0E                     u1371:
  2033  000B0E  EFB6  F005         	goto	l1902
  2034  000B12                     u1370:
  2035  000B12  0E00               	movlw	0
  2036  000B14  6E46               	movwf	?___fladd^(0+1280),c
  2037  000B16  0E00               	movlw	0
  2038  000B18  6E47               	movwf	(?___fladd+1)^(0+1280),c
  2039  000B1A  0E00               	movlw	0
  2040  000B1C  6E48               	movwf	(?___fladd+2)^(0+1280),c
  2041  000B1E  0E00               	movlw	0
  2042  000B20  6E49               	movwf	(?___fladd+3)^(0+1280),c
  2043  000B22  EF51  F006         	goto	l794
  2044  000B26                     l1886:
  2045  000B26  90D8               	bcf	status,0,c
  2046  000B28  3646               	rlcf	___fladd@b^(0+1280),f,c
  2047  000B2A  3647               	rlcf	(___fladd@b+1)^(0+1280),f,c
  2048  000B2C  3648               	rlcf	(___fladd@b+2)^(0+1280),f,c
  2049  000B2E  3649               	rlcf	(___fladd@b+3)^(0+1280),f,c
  2050  000B30  AE55               	btfss	___fladd@grs^(0+1280),7,c
  2051  000B32  EF9D  F005         	goto	u1381
  2052  000B36  EF9F  F005         	goto	u1380
  2053  000B3A                     u1381:
  2054  000B3A  EFA0  F005         	goto	l1892
  2055  000B3E                     u1380:
  2056  000B3E  8046               	bsf	___fladd@b^(0+1280),0,c
  2057  000B40                     l1892:
  2058  000B40  A055               	btfss	___fladd@grs^(0+1280),0,c
  2059  000B42  EFA5  F005         	goto	u1391
  2060  000B46  EFA7  F005         	goto	u1390
  2061  000B4A                     u1391:
  2062  000B4A  EFAB  F005         	goto	l1896
  2063  000B4E                     u1390:
  2064  000B4E  80D8               	bsf	status,0,c
  2065  000B50  3655               	rlcf	___fladd@grs^(0+1280),f,c
  2066  000B52  EFAD  F005         	goto	l1898
  2067  000B56                     l1896:
  2068  000B56  90D8               	bcf	status,0,c
  2069  000B58  3655               	rlcf	___fladd@grs^(0+1280),f,c
  2070  000B5A                     l1898:
  2071  000B5A  5054               	movf	___fladd@bexp^(0+1280),w,c
  2072  000B5C  B4D8               	btfsc	status,2,c
  2073  000B5E  EFB3  F005         	goto	u1401
  2074  000B62  EFB5  F005         	goto	u1400
  2075  000B66                     u1401:
  2076  000B66  EFB6  F005         	goto	l1902
  2077  000B6A                     u1400:
  2078  000B6A  0654               	decf	___fladd@bexp^(0+1280),f,c
  2079  000B6C                     l1902:
  2080  000B6C  AE48               	btfss	(___fladd@b+2)^(0+1280),7,c
  2081  000B6E  EFBB  F005         	goto	u1411
  2082  000B72  EFBD  F005         	goto	u1410
  2083  000B76                     u1411:
  2084  000B76  EF93  F005         	goto	l1886
  2085  000B7A                     u1410:
  2086  000B7A                     l1904:
  2087  000B7A  0E00               	movlw	0
  2088  000B7C  6E53               	movwf	___fladd@aexp^(0+1280),c
  2089  000B7E  AE55               	btfss	___fladd@grs^(0+1280),7,c
  2090  000B80  EFC4  F005         	goto	u1421
  2091  000B84  EFC6  F005         	goto	u1420
  2092  000B88                     u1421:
  2093  000B88  EFDE  F005         	goto	l811
  2094  000B8C                     u1420:
  2095  000B8C  C555  F54E         	movff	___fladd@grs,??___fladd
  2096  000B90  0E7F               	movlw	127
  2097  000B92  164E               	andwf	??___fladd^(0+1280),f,c
  2098  000B94  B4D8               	btfsc	status,2,c
  2099  000B96  EFCF  F005         	goto	u1431
  2100  000B9A  EFD1  F005         	goto	u1430
  2101  000B9E                     u1431:
  2102  000B9E  EFD5  F005         	goto	l812
  2103  000BA2                     u1430:
  2104  000BA2                     l1910:
  2105  000BA2  0E01               	movlw	1
  2106  000BA4  6E53               	movwf	___fladd@aexp^(0+1280),c
  2107  000BA6  EFDE  F005         	goto	l811
  2108  000BAA                     l812:
  2109  000BAA  A046               	btfss	___fladd@b^(0+1280),0,c
  2110  000BAC  EFDA  F005         	goto	u1441
  2111  000BB0  EFDC  F005         	goto	u1440
  2112  000BB4                     u1441:
  2113  000BB4  EFDE  F005         	goto	l811
  2114  000BB8                     u1440:
  2115  000BB8  EFD1  F005         	goto	l1910
  2116  000BBC                     l811:
  2117  000BBC  5053               	movf	___fladd@aexp^(0+1280),w,c
  2118  000BBE  B4D8               	btfsc	status,2,c
  2119  000BC0  EFE4  F005         	goto	u1451
  2120  000BC4  EFE6  F005         	goto	u1450
  2121  000BC8                     u1451:
  2122  000BC8  EF11  F006         	goto	l1922
  2123  000BCC                     u1450:
  2124  000BCC  0E01               	movlw	1
  2125  000BCE  2646               	addwf	___fladd@b^(0+1280),f,c
  2126  000BD0  0E00               	movlw	0
  2127  000BD2  2247               	addwfc	(___fladd@b+1)^(0+1280),f,c
  2128  000BD4  2248               	addwfc	(___fladd@b+2)^(0+1280),f,c
  2129  000BD6  2249               	addwfc	(___fladd@b+3)^(0+1280),f,c
  2130  000BD8  A049               	btfss	(___fladd@b+3)^(0+1280),0,c
  2131  000BDA  EFF1  F005         	goto	u1461
  2132  000BDE  EFF3  F005         	goto	u1460
  2133  000BE2                     u1461:
  2134  000BE2  EF11  F006         	goto	l1922
  2135  000BE6                     u1460:
  2136  000BE6  C546  F54E         	movff	___fladd@b,??___fladd
  2137  000BEA  C547  F54F         	movff	___fladd@b+1,??___fladd+1
  2138  000BEE  C548  F550         	movff	___fladd@b+2,??___fladd+2
  2139  000BF2  C549  F551         	movff	___fladd@b+3,??___fladd+3
  2140  000BF6  3451               	rlcf	(??___fladd+3)^(0+1280),w,c
  2141  000BF8  3251               	rrcf	(??___fladd+3)^(0+1280),f,c
  2142  000BFA  3250               	rrcf	(??___fladd+2)^(0+1280),f,c
  2143  000BFC  324F               	rrcf	(??___fladd+1)^(0+1280),f,c
  2144  000BFE  324E               	rrcf	??___fladd^(0+1280),f,c
  2145  000C00  C54E  F546         	movff	??___fladd,___fladd@b
  2146  000C04  C54F  F547         	movff	??___fladd+1,___fladd@b+1
  2147  000C08  C550  F548         	movff	??___fladd+2,___fladd@b+2
  2148  000C0C  C551  F549         	movff	??___fladd+3,___fladd@b+3
  2149  000C10  2854               	incf	___fladd@bexp^(0+1280),w,c
  2150  000C12  B4D8               	btfsc	status,2,c
  2151  000C14  EF0E  F006         	goto	u1471
  2152  000C18  EF10  F006         	goto	u1470
  2153  000C1C                     u1471:
  2154  000C1C  EF11  F006         	goto	l1922
  2155  000C20                     u1470:
  2156  000C20  2A54               	incf	___fladd@bexp^(0+1280),f,c
  2157  000C22                     l1922:
  2158  000C22  2854               	incf	___fladd@bexp^(0+1280),w,c
  2159  000C24  B4D8               	btfsc	status,2,c
  2160  000C26  EF17  F006         	goto	u1481
  2161  000C2A  EF19  F006         	goto	u1480
  2162  000C2E                     u1481:
  2163  000C2E  EF21  F006         	goto	l1926
  2164  000C32                     u1480:
  2165  000C32  5054               	movf	___fladd@bexp^(0+1280),w,c
  2166  000C34  A4D8               	btfss	status,2,c
  2167  000C36  EF1F  F006         	goto	u1491
  2168  000C3A  EF21  F006         	goto	u1490
  2169  000C3E                     u1491:
  2170  000C3E  EF33  F006         	goto	l1930
  2171  000C42                     u1490:
  2172  000C42                     l1926:
  2173  000C42  0E00               	movlw	0
  2174  000C44  6E46               	movwf	___fladd@b^(0+1280),c
  2175  000C46  0E00               	movlw	0
  2176  000C48  6E47               	movwf	(___fladd@b+1)^(0+1280),c
  2177  000C4A  0E00               	movlw	0
  2178  000C4C  6E48               	movwf	(___fladd@b+2)^(0+1280),c
  2179  000C4E  0E00               	movlw	0
  2180  000C50  6E49               	movwf	(___fladd@b+3)^(0+1280),c
  2181  000C52  5054               	movf	___fladd@bexp^(0+1280),w,c
  2182  000C54  A4D8               	btfss	status,2,c
  2183  000C56  EF2F  F006         	goto	u1501
  2184  000C5A  EF31  F006         	goto	u1500
  2185  000C5E                     u1501:
  2186  000C5E  EF33  F006         	goto	l1930
  2187  000C62                     u1500:
  2188  000C62  0E00               	movlw	0
  2189  000C64  6E52               	movwf	___fladd@signs^(0+1280),c
  2190  000C66                     l1930:
  2191  000C66  A054               	btfss	___fladd@bexp^(0+1280),0,c
  2192  000C68  EF38  F006         	goto	u1511
  2193  000C6C  EF3A  F006         	goto	u1510
  2194  000C70                     u1511:
  2195  000C70  EF3D  F006         	goto	l1934
  2196  000C74                     u1510:
  2197  000C74  8E48               	bsf	(___fladd@b+2)^(0+1280),7,c
  2198  000C76  EF3E  F006         	goto	l1936
  2199  000C7A                     l1934:
  2200  000C7A  9E48               	bcf	(___fladd@b+2)^(0+1280),7,c
  2201  000C7C                     l1936:
  2202  000C7C  90D8               	bcf	status,0,c
  2203  000C7E  3054               	rrcf	___fladd@bexp^(0+1280),w,c
  2204  000C80  6E49               	movwf	(___fladd@b+3)^(0+1280),c
  2205  000C82  AE52               	btfss	___fladd@signs^(0+1280),7,c
  2206  000C84  EF46  F006         	goto	u1521
  2207  000C88  EF48  F006         	goto	u1520
  2208  000C8C                     u1521:
  2209  000C8C  EF49  F006         	goto	l1942
  2210  000C90                     u1520:
  2211  000C90  8E49               	bsf	(___fladd@b+3)^(0+1280),7,c
  2212  000C92                     l1942:
  2213  000C92  C546  F546         	movff	___fladd@b,?___fladd
  2214  000C96  C547  F547         	movff	___fladd@b+1,?___fladd+1
  2215  000C9A  C548  F548         	movff	___fladd@b+2,?___fladd+2
  2216  000C9E  C549  F549         	movff	___fladd@b+3,?___fladd+3
  2217  000CA2                     l794:
  2218  000CA2  0012               	return		;funcret
  2219  000CA4                     __end_of___fladd:
  2220                           	callstack 0
  2221                           
  2222 ;; *************** function ___flneg *****************
  2223 ;; Defined at:
  2224 ;;		line 15 in file "C:\Program Files\Microchip\xc8\v2.32\pic\sources\c99\common\flneg.c"
  2225 ;; Parameters:    Size  Location     Type
  2226 ;;  f1              4   85[COMRAM] unsigned char 
  2227 ;; Auto vars:     Size  Location     Type
  2228 ;;		None
  2229 ;; Return value:  Size  Location     Type
  2230 ;;                  4   85[COMRAM] unsigned char 
  2231 ;; Registers used:
  2232 ;;		wreg, status,2, status,0
  2233 ;; Tracked objects:
  2234 ;;		On entry : 0/0
  2235 ;;		On exit  : 0/0
  2236 ;;		Unchanged: 0/0
  2237 ;; Data sizes:     COMRAM   BANK5   BANK6   BANK7   BANK8   BANK9  BANK10  BANK11  BANK12  BANK13  BANK14  BANK15  BANK1
      +6  BANK17  BANK18  BANK19  BANK20  BANK21  BANK22  BANK23  BANK24  BANK25  BANK26  BANK27  BANK28  BANK29  BANK30  BANK3
      +1  BANK32  BANK33  BANK34  BANK35  BANK36  BANK37
  2238 ;;      Params:         4       0       0       0       0       0       0       0       0       0       0       0       
      +0       0       0       0       0       0       0       0       0       0       0       0       0       0       0       
      +0       0       0       0       0       0       0
  2239 ;;      Locals:         0       0       0       0       0       0       0       0       0       0       0       0       
      +0       0       0       0       0       0       0       0       0       0       0       0       0       0       0       
      +0       0       0       0       0       0       0
  2240 ;;      Temps:          0       0       0       0       0       0       0       0       0       0       0       0       
      +0       0       0       0       0       0       0       0       0       0       0       0       0       0       0       
      +0       0       0       0       0       0       0
  2241 ;;      Totals:         4       0       0       0       0       0       0       0       0       0       0       0       
      +0       0       0       0       0       0       0       0       0       0       0       0       0       0       0       
      +0       0       0       0       0       0       0
  2242 ;;Total ram usage:        4 bytes
  2243 ;; Hardware stack levels used: 1
  2244 ;; Hardware stack levels required when called: 2
  2245 ;; This function calls:
  2246 ;;		Nothing
  2247 ;; This function is called by:
  2248 ;;		_main
  2249 ;; This function uses a non-reentrant model
  2250 ;;
  2251                           
  2252                           	psect	text5
  2253  0018D0                     __ptext5:
  2254                           	callstack 0
  2255  0018D0                     ___flneg:
  2256                           	callstack 124
  2257  0018D0  5056               	movf	___flneg@f1^(0+1280),w,c
  2258  0018D2  1057               	iorwf	(___flneg@f1+1)^(0+1280),w,c
  2259  0018D4  1058               	iorwf	(___flneg@f1+2)^(0+1280),w,c
  2260  0018D6  1059               	iorwf	(___flneg@f1+3)^(0+1280),w,c
  2261  0018D8  B4D8               	btfsc	status,2,c
  2262  0018DA  EF71  F00C         	goto	u2021
  2263  0018DE  EF73  F00C         	goto	u2020
  2264  0018E2                     u2021:
  2265  0018E2  EF7B  F00C         	goto	l2304
  2266  0018E6                     u2020:
  2267  0018E6  0E00               	movlw	0
  2268  0018E8  1A56               	xorwf	___flneg@f1^(0+1280),f,c
  2269  0018EA  0E00               	movlw	0
  2270  0018EC  1A57               	xorwf	(___flneg@f1+1)^(0+1280),f,c
  2271  0018EE  0E00               	movlw	0
  2272  0018F0  1A58               	xorwf	(___flneg@f1+2)^(0+1280),f,c
  2273  0018F2  0E80               	movlw	128
  2274  0018F4  1A59               	xorwf	(___flneg@f1+3)^(0+1280),f,c
  2275  0018F6                     l2304:
  2276  0018F6  C556  F556         	movff	___flneg@f1,?___flneg
  2277  0018FA  C557  F557         	movff	___flneg@f1+1,?___flneg+1
  2278  0018FE  C558  F558         	movff	___flneg@f1+2,?___flneg+2
  2279  001902  C559  F559         	movff	___flneg@f1+3,?___flneg+3
  2280  001906  0012               	return		;funcret
  2281  001908                     __end_of___flneg:
  2282                           	callstack 0
  2283                           
  2284 ;; *************** function ___flmul *****************
  2285 ;; Defined at:
  2286 ;;		line 8 in file "C:\Program Files\Microchip\xc8\v2.32\pic\sources\c99\common\sprcmul.c"
  2287 ;; Parameters:    Size  Location     Type
  2288 ;;  b               4   19[COMRAM] unsigned char 
  2289 ;;  a               4   23[COMRAM] unsigned char 
  2290 ;; Auto vars:     Size  Location     Type
  2291 ;;  prod            4   38[COMRAM] struct .
  2292 ;;  grs             4   32[COMRAM] unsigned long 
  2293 ;;  temp            2   42[COMRAM] struct .
  2294 ;;  bexp            1   37[COMRAM] unsigned char 
  2295 ;;  aexp            1   36[COMRAM] unsigned char 
  2296 ;;  sign            1   31[COMRAM] unsigned char 
  2297 ;; Return value:  Size  Location     Type
  2298 ;;                  4   19[COMRAM] unsigned char 
  2299 ;; Registers used:
  2300 ;;		wreg, status,2, status,0, prodl, prodh
  2301 ;; Tracked objects:
  2302 ;;		On entry : 0/0
  2303 ;;		On exit  : 0/0
  2304 ;;		Unchanged: 0/0
  2305 ;; Data sizes:     COMRAM   BANK5   BANK6   BANK7   BANK8   BANK9  BANK10  BANK11  BANK12  BANK13  BANK14  BANK15  BANK1
      +6  BANK17  BANK18  BANK19  BANK20  BANK21  BANK22  BANK23  BANK24  BANK25  BANK26  BANK27  BANK28  BANK29  BANK30  BANK3
      +1  BANK32  BANK33  BANK34  BANK35  BANK36  BANK37
  2306 ;;      Params:         8       0       0       0       0       0       0       0       0       0       0       0       
      +0       0       0       0       0       0       0       0       0       0       0       0       0       0       0       
      +0       0       0       0       0       0       0
  2307 ;;      Locals:        13       0       0       0       0       0       0       0       0       0       0       0       
      +0       0       0       0       0       0       0       0       0       0       0       0       0       0       0       
      +0       0       0       0       0       0       0
  2308 ;;      Temps:          4       0       0       0       0       0       0       0       0       0       0       0       
      +0       0       0       0       0       0       0       0       0       0       0       0       0       0       0       
      +0       0       0       0       0       0       0
  2309 ;;      Totals:        25       0       0       0       0       0       0       0       0       0       0       0       
      +0       0       0       0       0       0       0       0       0       0       0       0       0       0       0       
      +0       0       0       0       0       0       0
  2310 ;;Total ram usage:       25 bytes
  2311 ;; Hardware stack levels used: 1
  2312 ;; Hardware stack levels required when called: 2
  2313 ;; This function calls:
  2314 ;;		Nothing
  2315 ;; This function is called by:
  2316 ;;		_main
  2317 ;; This function uses a non-reentrant model
  2318 ;;
  2319                           
  2320                           	psect	text6
  2321  000CA4                     __ptext6:
  2322                           	callstack 0
  2323  000CA4                     ___flmul:
  2324                           	callstack 124
  2325  000CA4  5017               	movf	(___flmul@b+3)^(0+1280),w,c
  2326  000CA6  0B80               	andlw	128
  2327  000CA8  6E20               	movwf	___flmul@sign^(0+1280),c
  2328  000CAA  5017               	movf	(___flmul@b+3)^(0+1280),w,c
  2329  000CAC  2417               	addwf	(___flmul@b+3)^(0+1280),w,c
  2330  000CAE  6E26               	movwf	___flmul@bexp^(0+1280),c
  2331  000CB0  AE16               	btfss	(___flmul@b+2)^(0+1280),7,c
  2332  000CB2  EF5D  F006         	goto	u1781
  2333  000CB6  EF5F  F006         	goto	u1780
  2334  000CBA                     u1781:
  2335  000CBA  EF60  F006         	goto	l2148
  2336  000CBE                     u1780:
  2337  000CBE  8026               	bsf	___flmul@bexp^(0+1280),0,c
  2338  000CC0                     l2148:
  2339  000CC0  5026               	movf	___flmul@bexp^(0+1280),w,c
  2340  000CC2  B4D8               	btfsc	status,2,c
  2341  000CC4  EF66  F006         	goto	u1791
  2342  000CC8  EF68  F006         	goto	u1790
  2343  000CCC                     u1791:
  2344  000CCC  EF7B  F006         	goto	l2156
  2345  000CD0                     u1790:
  2346  000CD0  2826               	incf	___flmul@bexp^(0+1280),w,c
  2347  000CD2  A4D8               	btfss	status,2,c
  2348  000CD4  EF6E  F006         	goto	u1801
  2349  000CD8  EF70  F006         	goto	u1800
  2350  000CDC                     u1801:
  2351  000CDC  EF78  F006         	goto	l2154
  2352  000CE0                     u1800:
  2353  000CE0  0E00               	movlw	0
  2354  000CE2  6E14               	movwf	___flmul@b^(0+1280),c
  2355  000CE4  0E00               	movlw	0
  2356  000CE6  6E15               	movwf	(___flmul@b+1)^(0+1280),c
  2357  000CE8  0E00               	movlw	0
  2358  000CEA  6E16               	movwf	(___flmul@b+2)^(0+1280),c
  2359  000CEC  0E00               	movlw	0
  2360  000CEE  6E17               	movwf	(___flmul@b+3)^(0+1280),c
  2361  000CF0                     l2154:
  2362  000CF0  8E16               	bsf	(___flmul@b+2)^(0+1280),7,c
  2363  000CF2  EF83  F006         	goto	l2158
  2364  000CF6                     l2156:
  2365  000CF6  0E00               	movlw	0
  2366  000CF8  6E14               	movwf	___flmul@b^(0+1280),c
  2367  000CFA  0E00               	movlw	0
  2368  000CFC  6E15               	movwf	(___flmul@b+1)^(0+1280),c
  2369  000CFE  0E00               	movlw	0
  2370  000D00  6E16               	movwf	(___flmul@b+2)^(0+1280),c
  2371  000D02  0E00               	movlw	0
  2372  000D04  6E17               	movwf	(___flmul@b+3)^(0+1280),c
  2373  000D06                     l2158:
  2374  000D06  501B               	movf	(___flmul@a+3)^(0+1280),w,c
  2375  000D08  0B80               	andlw	128
  2376  000D0A  1A20               	xorwf	___flmul@sign^(0+1280),f,c
  2377  000D0C  501B               	movf	(___flmul@a+3)^(0+1280),w,c
  2378  000D0E  241B               	addwf	(___flmul@a+3)^(0+1280),w,c
  2379  000D10  6E25               	movwf	___flmul@aexp^(0+1280),c
  2380  000D12  AE1A               	btfss	(___flmul@a+2)^(0+1280),7,c
  2381  000D14  EF8E  F006         	goto	u1811
  2382  000D18  EF90  F006         	goto	u1810
  2383  000D1C                     u1811:
  2384  000D1C  EF91  F006         	goto	l2166
  2385  000D20                     u1810:
  2386  000D20  8025               	bsf	___flmul@aexp^(0+1280),0,c
  2387  000D22                     l2166:
  2388  000D22  5025               	movf	___flmul@aexp^(0+1280),w,c
  2389  000D24  B4D8               	btfsc	status,2,c
  2390  000D26  EF97  F006         	goto	u1821
  2391  000D2A  EF99  F006         	goto	u1820
  2392  000D2E                     u1821:
  2393  000D2E  EFAC  F006         	goto	l2174
  2394  000D32                     u1820:
  2395  000D32  2825               	incf	___flmul@aexp^(0+1280),w,c
  2396  000D34  A4D8               	btfss	status,2,c
  2397  000D36  EF9F  F006         	goto	u1831
  2398  000D3A  EFA1  F006         	goto	u1830
  2399  000D3E                     u1831:
  2400  000D3E  EFA9  F006         	goto	l2172
  2401  000D42                     u1830:
  2402  000D42  0E00               	movlw	0
  2403  000D44  6E18               	movwf	___flmul@a^(0+1280),c
  2404  000D46  0E00               	movlw	0
  2405  000D48  6E19               	movwf	(___flmul@a+1)^(0+1280),c
  2406  000D4A  0E00               	movlw	0
  2407  000D4C  6E1A               	movwf	(___flmul@a+2)^(0+1280),c
  2408  000D4E  0E00               	movlw	0
  2409  000D50  6E1B               	movwf	(___flmul@a+3)^(0+1280),c
  2410  000D52                     l2172:
  2411  000D52  8E1A               	bsf	(___flmul@a+2)^(0+1280),7,c
  2412  000D54  EFB4  F006         	goto	l871
  2413  000D58                     l2174:
  2414  000D58  0E00               	movlw	0
  2415  000D5A  6E18               	movwf	___flmul@a^(0+1280),c
  2416  000D5C  0E00               	movlw	0
  2417  000D5E  6E19               	movwf	(___flmul@a+1)^(0+1280),c
  2418  000D60  0E00               	movlw	0
  2419  000D62  6E1A               	movwf	(___flmul@a+2)^(0+1280),c
  2420  000D64  0E00               	movlw	0
  2421  000D66  6E1B               	movwf	(___flmul@a+3)^(0+1280),c
  2422  000D68                     l871:
  2423  000D68  5025               	movf	___flmul@aexp^(0+1280),w,c
  2424  000D6A  B4D8               	btfsc	status,2,c
  2425  000D6C  EFBA  F006         	goto	u1841
  2426  000D70  EFBC  F006         	goto	u1840
  2427  000D74                     u1841:
  2428  000D74  EFC4  F006         	goto	l2178
  2429  000D78                     u1840:
  2430  000D78  5026               	movf	___flmul@bexp^(0+1280),w,c
  2431  000D7A  A4D8               	btfss	status,2,c
  2432  000D7C  EFC2  F006         	goto	u1851
  2433  000D80  EFC4  F006         	goto	u1850
  2434  000D84                     u1851:
  2435  000D84  EFCE  F006         	goto	l2182
  2436  000D88                     u1850:
  2437  000D88                     l2178:
  2438  000D88  0E00               	movlw	0
  2439  000D8A  6E14               	movwf	?___flmul^(0+1280),c
  2440  000D8C  0E00               	movlw	0
  2441  000D8E  6E15               	movwf	(?___flmul+1)^(0+1280),c
  2442  000D90  0E00               	movlw	0
  2443  000D92  6E16               	movwf	(?___flmul+2)^(0+1280),c
  2444  000D94  0E00               	movlw	0
  2445  000D96  6E17               	movwf	(?___flmul+3)^(0+1280),c
  2446  000D98  EF78  F008         	goto	l875
  2447  000D9C                     l2182:
  2448  000D9C  501A               	movf	(___flmul@a+2)^(0+1280),w,c
  2449  000D9E  0214               	mulwf	___flmul@b^(0+1280),c
  2450  000DA0  0061 F3CC  F52B    	movff	prodl,___flmul@temp
  2451  000DA6  0061 F3D0  F52C    	movff	prodh,___flmul@temp+1
  2452  000DAC  502B               	movf	___flmul@temp^(0+1280),w,c
  2453  000DAE  6E21               	movwf	___flmul@grs^(0+1280),c
  2454  000DB0  6A22               	clrf	(___flmul@grs+1)^(0+1280),c
  2455  000DB2  6A23               	clrf	(___flmul@grs+2)^(0+1280),c
  2456  000DB4  6A24               	clrf	(___flmul@grs+3)^(0+1280),c
  2457  000DB6  502C               	movf	(___flmul@temp+1)^(0+1280),w,c
  2458  000DB8  6E27               	movwf	___flmul@prod^(0+1280),c
  2459  000DBA  6A28               	clrf	(___flmul@prod+1)^(0+1280),c
  2460  000DBC  6A29               	clrf	(___flmul@prod+2)^(0+1280),c
  2461  000DBE  6A2A               	clrf	(___flmul@prod+3)^(0+1280),c
  2462  000DC0  5019               	movf	(___flmul@a+1)^(0+1280),w,c
  2463  000DC2  0215               	mulwf	(___flmul@b+1)^(0+1280),c
  2464  000DC4  0061 F3CC  F52B    	movff	prodl,___flmul@temp
  2465  000DCA  0061 F3D0  F52C    	movff	prodh,___flmul@temp+1
  2466  000DD0  502B               	movf	___flmul@temp^(0+1280),w,c
  2467  000DD2  2621               	addwf	___flmul@grs^(0+1280),f,c
  2468  000DD4  0E00               	movlw	0
  2469  000DD6  2222               	addwfc	(___flmul@grs+1)^(0+1280),f,c
  2470  000DD8  2223               	addwfc	(___flmul@grs+2)^(0+1280),f,c
  2471  000DDA  2224               	addwfc	(___flmul@grs+3)^(0+1280),f,c
  2472  000DDC  502C               	movf	(___flmul@temp+1)^(0+1280),w,c
  2473  000DDE  2627               	addwf	___flmul@prod^(0+1280),f,c
  2474  000DE0  0E00               	movlw	0
  2475  000DE2  2228               	addwfc	(___flmul@prod+1)^(0+1280),f,c
  2476  000DE4  2229               	addwfc	(___flmul@prod+2)^(0+1280),f,c
  2477  000DE6  222A               	addwfc	(___flmul@prod+3)^(0+1280),f,c
  2478  000DE8  5018               	movf	___flmul@a^(0+1280),w,c
  2479  000DEA  0216               	mulwf	(___flmul@b+2)^(0+1280),c
  2480  000DEC  0061 F3CC  F52B    	movff	prodl,___flmul@temp
  2481  000DF2  0061 F3D0  F52C    	movff	prodh,___flmul@temp+1
  2482  000DF8  502B               	movf	___flmul@temp^(0+1280),w,c
  2483  000DFA  2621               	addwf	___flmul@grs^(0+1280),f,c
  2484  000DFC  0E00               	movlw	0
  2485  000DFE  2222               	addwfc	(___flmul@grs+1)^(0+1280),f,c
  2486  000E00  2223               	addwfc	(___flmul@grs+2)^(0+1280),f,c
  2487  000E02  2224               	addwfc	(___flmul@grs+3)^(0+1280),f,c
  2488  000E04  502C               	movf	(___flmul@temp+1)^(0+1280),w,c
  2489  000E06  2627               	addwf	___flmul@prod^(0+1280),f,c
  2490  000E08  0E00               	movlw	0
  2491  000E0A  2228               	addwfc	(___flmul@prod+1)^(0+1280),f,c
  2492  000E0C  2229               	addwfc	(___flmul@prod+2)^(0+1280),f,c
  2493  000E0E  222A               	addwfc	(___flmul@prod+3)^(0+1280),f,c
  2494  000E10  C523  F524         	movff	___flmul@grs+2,___flmul@grs+3
  2495  000E14  C522  F523         	movff	___flmul@grs+1,___flmul@grs+2
  2496  000E18  C521  F522         	movff	___flmul@grs,___flmul@grs+1
  2497  000E1C  6A21               	clrf	___flmul@grs^(0+1280),c
  2498  000E1E  5018               	movf	___flmul@a^(0+1280),w,c
  2499  000E20  0215               	mulwf	(___flmul@b+1)^(0+1280),c
  2500  000E22  0061 F3CC  F52B    	movff	prodl,___flmul@temp
  2501  000E28  0061 F3D0  F52C    	movff	prodh,___flmul@temp+1
  2502  000E2E  502B               	movf	___flmul@temp^(0+1280),w,c
  2503  000E30  2621               	addwf	___flmul@grs^(0+1280),f,c
  2504  000E32  502C               	movf	(___flmul@temp+1)^(0+1280),w,c
  2505  000E34  2222               	addwfc	(___flmul@grs+1)^(0+1280),f,c
  2506  000E36  0E00               	movlw	0
  2507  000E38  2223               	addwfc	(___flmul@grs+2)^(0+1280),f,c
  2508  000E3A  0E00               	movlw	0
  2509  000E3C  2224               	addwfc	(___flmul@grs+3)^(0+1280),f,c
  2510  000E3E  5019               	movf	(___flmul@a+1)^(0+1280),w,c
  2511  000E40  0214               	mulwf	___flmul@b^(0+1280),c
  2512  000E42  0061 F3CC  F52B    	movff	prodl,___flmul@temp
  2513  000E48  0061 F3D0  F52C    	movff	prodh,___flmul@temp+1
  2514  000E4E  502B               	movf	___flmul@temp^(0+1280),w,c
  2515  000E50  2621               	addwf	___flmul@grs^(0+1280),f,c
  2516  000E52  502C               	movf	(___flmul@temp+1)^(0+1280),w,c
  2517  000E54  2222               	addwfc	(___flmul@grs+1)^(0+1280),f,c
  2518  000E56  0E00               	movlw	0
  2519  000E58  2223               	addwfc	(___flmul@grs+2)^(0+1280),f,c
  2520  000E5A  0E00               	movlw	0
  2521  000E5C  2224               	addwfc	(___flmul@grs+3)^(0+1280),f,c
  2522  000E5E  C523  F524         	movff	___flmul@grs+2,___flmul@grs+3
  2523  000E62  C522  F523         	movff	___flmul@grs+1,___flmul@grs+2
  2524  000E66  C521  F522         	movff	___flmul@grs,___flmul@grs+1
  2525  000E6A  6A21               	clrf	___flmul@grs^(0+1280),c
  2526  000E6C  5018               	movf	___flmul@a^(0+1280),w,c
  2527  000E6E  0214               	mulwf	___flmul@b^(0+1280),c
  2528  000E70  0061 F3CC  F52B    	movff	prodl,___flmul@temp
  2529  000E76  0061 F3D0  F52C    	movff	prodh,___flmul@temp+1
  2530  000E7C  502B               	movf	___flmul@temp^(0+1280),w,c
  2531  000E7E  2621               	addwf	___flmul@grs^(0+1280),f,c
  2532  000E80  502C               	movf	(___flmul@temp+1)^(0+1280),w,c
  2533  000E82  2222               	addwfc	(___flmul@grs+1)^(0+1280),f,c
  2534  000E84  0E00               	movlw	0
  2535  000E86  2223               	addwfc	(___flmul@grs+2)^(0+1280),f,c
  2536  000E88  0E00               	movlw	0
  2537  000E8A  2224               	addwfc	(___flmul@grs+3)^(0+1280),f,c
  2538  000E8C  501A               	movf	(___flmul@a+2)^(0+1280),w,c
  2539  000E8E  0215               	mulwf	(___flmul@b+1)^(0+1280),c
  2540  000E90  0061 F3CC  F52B    	movff	prodl,___flmul@temp
  2541  000E96  0061 F3D0  F52C    	movff	prodh,___flmul@temp+1
  2542  000E9C  502B               	movf	___flmul@temp^(0+1280),w,c
  2543  000E9E  2627               	addwf	___flmul@prod^(0+1280),f,c
  2544  000EA0  502C               	movf	(___flmul@temp+1)^(0+1280),w,c
  2545  000EA2  2228               	addwfc	(___flmul@prod+1)^(0+1280),f,c
  2546  000EA4  0E00               	movlw	0
  2547  000EA6  2229               	addwfc	(___flmul@prod+2)^(0+1280),f,c
  2548  000EA8  0E00               	movlw	0
  2549  000EAA  222A               	addwfc	(___flmul@prod+3)^(0+1280),f,c
  2550  000EAC  5019               	movf	(___flmul@a+1)^(0+1280),w,c
  2551  000EAE  0216               	mulwf	(___flmul@b+2)^(0+1280),c
  2552  000EB0  0061 F3CC  F52B    	movff	prodl,___flmul@temp
  2553  000EB6  0061 F3D0  F52C    	movff	prodh,___flmul@temp+1
  2554  000EBC  502B               	movf	___flmul@temp^(0+1280),w,c
  2555  000EBE  2627               	addwf	___flmul@prod^(0+1280),f,c
  2556  000EC0  502C               	movf	(___flmul@temp+1)^(0+1280),w,c
  2557  000EC2  2228               	addwfc	(___flmul@prod+1)^(0+1280),f,c
  2558  000EC4  0E00               	movlw	0
  2559  000EC6  2229               	addwfc	(___flmul@prod+2)^(0+1280),f,c
  2560  000EC8  0E00               	movlw	0
  2561  000ECA  222A               	addwfc	(___flmul@prod+3)^(0+1280),f,c
  2562  000ECC  501A               	movf	(___flmul@a+2)^(0+1280),w,c
  2563  000ECE  0216               	mulwf	(___flmul@b+2)^(0+1280),c
  2564  000ED0  0061 F3CC  F52B    	movff	prodl,___flmul@temp
  2565  000ED6  0061 F3D0  F52C    	movff	prodh,___flmul@temp+1
  2566  000EDC  502B               	movf	___flmul@temp^(0+1280),w,c
  2567  000EDE  6E1C               	movwf	??___flmul^(0+1280),c
  2568  000EE0  502C               	movf	(___flmul@temp+1)^(0+1280),w,c
  2569  000EE2  6E1D               	movwf	(??___flmul+1)^(0+1280),c
  2570  000EE4  6A1E               	clrf	(??___flmul+2)^(0+1280),c
  2571  000EE6  6A1F               	clrf	(??___flmul+3)^(0+1280),c
  2572  000EE8  C51E  F51F         	movff	??___flmul+2,??___flmul+3
  2573  000EEC  C51D  F51E         	movff	??___flmul+1,??___flmul+2
  2574  000EF0  C51C  F51D         	movff	??___flmul,??___flmul+1
  2575  000EF4  6A1C               	clrf	??___flmul^(0+1280),c
  2576  000EF6  501C               	movf	??___flmul^(0+1280),w,c
  2577  000EF8  2627               	addwf	___flmul@prod^(0+1280),f,c
  2578  000EFA  501D               	movf	(??___flmul+1)^(0+1280),w,c
  2579  000EFC  2228               	addwfc	(___flmul@prod+1)^(0+1280),f,c
  2580  000EFE  501E               	movf	(??___flmul+2)^(0+1280),w,c
  2581  000F00  2229               	addwfc	(___flmul@prod+2)^(0+1280),f,c
  2582  000F02  501F               	movf	(??___flmul+3)^(0+1280),w,c
  2583  000F04  222A               	addwfc	(___flmul@prod+3)^(0+1280),f,c
  2584  000F06  C521  F51C         	movff	___flmul@grs,??___flmul
  2585  000F0A  C522  F51D         	movff	___flmul@grs+1,??___flmul+1
  2586  000F0E  C523  F51E         	movff	___flmul@grs+2,??___flmul+2
  2587  000F12  C524  F51F         	movff	___flmul@grs+3,??___flmul+3
  2588  000F16  0E19               	movlw	25
  2589  000F18  EF93  F007         	goto	u1860
  2590  000F1C                     u1865:
  2591  000F1C  90D8               	bcf	status,0,c
  2592  000F1E  321F               	rrcf	(??___flmul+3)^(0+1280),f,c
  2593  000F20  321E               	rrcf	(??___flmul+2)^(0+1280),f,c
  2594  000F22  321D               	rrcf	(??___flmul+1)^(0+1280),f,c
  2595  000F24  321C               	rrcf	??___flmul^(0+1280),f,c
  2596  000F26                     u1860:
  2597  000F26  2EE8               	decfsz	wreg,f,c
  2598  000F28  EF8E  F007         	goto	u1865
  2599  000F2C  501C               	movf	??___flmul^(0+1280),w,c
  2600  000F2E  2627               	addwf	___flmul@prod^(0+1280),f,c
  2601  000F30  501D               	movf	(??___flmul+1)^(0+1280),w,c
  2602  000F32  2228               	addwfc	(___flmul@prod+1)^(0+1280),f,c
  2603  000F34  501E               	movf	(??___flmul+2)^(0+1280),w,c
  2604  000F36  2229               	addwfc	(___flmul@prod+2)^(0+1280),f,c
  2605  000F38  501F               	movf	(??___flmul+3)^(0+1280),w,c
  2606  000F3A  222A               	addwfc	(___flmul@prod+3)^(0+1280),f,c
  2607  000F3C  C523  F524         	movff	___flmul@grs+2,___flmul@grs+3
  2608  000F40  C522  F523         	movff	___flmul@grs+1,___flmul@grs+2
  2609  000F44  C521  F522         	movff	___flmul@grs,___flmul@grs+1
  2610  000F48  6A21               	clrf	___flmul@grs^(0+1280),c
  2611  000F4A  5025               	movf	___flmul@aexp^(0+1280),w,c
  2612  000F4C  C526  F51C         	movff	___flmul@bexp,??___flmul
  2613  000F50  6A1D               	clrf	(??___flmul+1)^(0+1280),c
  2614  000F52  261C               	addwf	??___flmul^(0+1280),f,c
  2615  000F54  0E00               	movlw	0
  2616  000F56  221D               	addwfc	(??___flmul+1)^(0+1280),f,c
  2617  000F58  0E82               	movlw	130
  2618  000F5A  241C               	addwf	??___flmul^(0+1280),w,c
  2619  000F5C  6E2B               	movwf	___flmul@temp^(0+1280),c
  2620  000F5E  0EFF               	movlw	255
  2621  000F60  201D               	addwfc	(??___flmul+1)^(0+1280),w,c
  2622  000F62  6E2C               	movwf	(___flmul@temp+1)^(0+1280),c
  2623  000F64  EFC9  F007         	goto	l2230
  2624  000F68                     l2224:
  2625  000F68  90D8               	bcf	status,0,c
  2626  000F6A  3627               	rlcf	___flmul@prod^(0+1280),f,c
  2627  000F6C  3628               	rlcf	(___flmul@prod+1)^(0+1280),f,c
  2628  000F6E  3629               	rlcf	(___flmul@prod+2)^(0+1280),f,c
  2629  000F70  362A               	rlcf	(___flmul@prod+3)^(0+1280),f,c
  2630  000F72  AE24               	btfss	(___flmul@grs+3)^(0+1280),7,c
  2631  000F74  EFBE  F007         	goto	u1871
  2632  000F78  EFC0  F007         	goto	u1870
  2633  000F7C                     u1871:
  2634  000F7C  EFC1  F007         	goto	l878
  2635  000F80                     u1870:
  2636  000F80  8027               	bsf	___flmul@prod^(0+1280),0,c
  2637  000F82                     l878:
  2638  000F82  90D8               	bcf	status,0,c
  2639  000F84  3621               	rlcf	___flmul@grs^(0+1280),f,c
  2640  000F86  3622               	rlcf	(___flmul@grs+1)^(0+1280),f,c
  2641  000F88  3623               	rlcf	(___flmul@grs+2)^(0+1280),f,c
  2642  000F8A  3624               	rlcf	(___flmul@grs+3)^(0+1280),f,c
  2643  000F8C  062B               	decf	___flmul@temp^(0+1280),f,c
  2644  000F8E  A0D8               	btfss	status,0,c
  2645  000F90  062C               	decf	(___flmul@temp+1)^(0+1280),f,c
  2646  000F92                     l2230:
  2647  000F92  AE29               	btfss	(___flmul@prod+2)^(0+1280),7,c
  2648  000F94  EFCE  F007         	goto	u1881
  2649  000F98  EFD0  F007         	goto	u1880
  2650  000F9C                     u1881:
  2651  000F9C  EFB4  F007         	goto	l2224
  2652  000FA0                     u1880:
  2653  000FA0  0E00               	movlw	0
  2654  000FA2  6E25               	movwf	___flmul@aexp^(0+1280),c
  2655  000FA4  AE24               	btfss	(___flmul@grs+3)^(0+1280),7,c
  2656  000FA6  EFD7  F007         	goto	u1891
  2657  000FAA  EFD9  F007         	goto	u1890
  2658  000FAE                     u1891:
  2659  000FAE  EFFD  F007         	goto	l880
  2660  000FB2                     u1890:
  2661  000FB2  0EFF               	movlw	255
  2662  000FB4  1421               	andwf	___flmul@grs^(0+1280),w,c
  2663  000FB6  6E1C               	movwf	??___flmul^(0+1280),c
  2664  000FB8  0EFF               	movlw	255
  2665  000FBA  1422               	andwf	(___flmul@grs+1)^(0+1280),w,c
  2666  000FBC  6E1D               	movwf	(??___flmul+1)^(0+1280),c
  2667  000FBE  0EFF               	movlw	255
  2668  000FC0  1423               	andwf	(___flmul@grs+2)^(0+1280),w,c
  2669  000FC2  6E1E               	movwf	(??___flmul+2)^(0+1280),c
  2670  000FC4  0E7F               	movlw	127
  2671  000FC6  1424               	andwf	(___flmul@grs+3)^(0+1280),w,c
  2672  000FC8  6E1F               	movwf	(??___flmul+3)^(0+1280),c
  2673  000FCA  501C               	movf	??___flmul^(0+1280),w,c
  2674  000FCC  101D               	iorwf	(??___flmul+1)^(0+1280),w,c
  2675  000FCE  101E               	iorwf	(??___flmul+2)^(0+1280),w,c
  2676  000FD0  101F               	iorwf	(??___flmul+3)^(0+1280),w,c
  2677  000FD2  B4D8               	btfsc	status,2,c
  2678  000FD4  EFEE  F007         	goto	u1901
  2679  000FD8  EFF0  F007         	goto	u1900
  2680  000FDC                     u1901:
  2681  000FDC  EFF4  F007         	goto	l881
  2682  000FE0                     u1900:
  2683  000FE0                     l2238:
  2684  000FE0  0E01               	movlw	1
  2685  000FE2  6E25               	movwf	___flmul@aexp^(0+1280),c
  2686  000FE4  EFFD  F007         	goto	l880
  2687  000FE8                     l881:
  2688  000FE8  A027               	btfss	___flmul@prod^(0+1280),0,c
  2689  000FEA  EFF9  F007         	goto	u1911
  2690  000FEE  EFFB  F007         	goto	u1910
  2691  000FF2                     u1911:
  2692  000FF2  EFFD  F007         	goto	l880
  2693  000FF6                     u1910:
  2694  000FF6  EFF0  F007         	goto	l2238
  2695  000FFA                     l880:
  2696  000FFA  5025               	movf	___flmul@aexp^(0+1280),w,c
  2697  000FFC  B4D8               	btfsc	status,2,c
  2698  000FFE  EF03  F008         	goto	u1921
  2699  001002  EF05  F008         	goto	u1920
  2700  001006                     u1921:
  2701  001006  EF29  F008         	goto	l2250
  2702  00100A                     u1920:
  2703  00100A  0E01               	movlw	1
  2704  00100C  2627               	addwf	___flmul@prod^(0+1280),f,c
  2705  00100E  0E00               	movlw	0
  2706  001010  2228               	addwfc	(___flmul@prod+1)^(0+1280),f,c
  2707  001012  2229               	addwfc	(___flmul@prod+2)^(0+1280),f,c
  2708  001014  222A               	addwfc	(___flmul@prod+3)^(0+1280),f,c
  2709  001016  A02A               	btfss	(___flmul@prod+3)^(0+1280),0,c
  2710  001018  EF10  F008         	goto	u1931
  2711  00101C  EF12  F008         	goto	u1930
  2712  001020                     u1931:
  2713  001020  EF29  F008         	goto	l2250
  2714  001024                     u1930:
  2715  001024  C527  F51C         	movff	___flmul@prod,??___flmul
  2716  001028  C528  F51D         	movff	___flmul@prod+1,??___flmul+1
  2717  00102C  C529  F51E         	movff	___flmul@prod+2,??___flmul+2
  2718  001030  C52A  F51F         	movff	___flmul@prod+3,??___flmul+3
  2719  001034  341F               	rlcf	(??___flmul+3)^(0+1280),w,c
  2720  001036  321F               	rrcf	(??___flmul+3)^(0+1280),f,c
  2721  001038  321E               	rrcf	(??___flmul+2)^(0+1280),f,c
  2722  00103A  321D               	rrcf	(??___flmul+1)^(0+1280),f,c
  2723  00103C  321C               	rrcf	??___flmul^(0+1280),f,c
  2724  00103E  C51C  F527         	movff	??___flmul,___flmul@prod
  2725  001042  C51D  F528         	movff	??___flmul+1,___flmul@prod+1
  2726  001046  C51E  F529         	movff	??___flmul+2,___flmul@prod+2
  2727  00104A  C51F  F52A         	movff	??___flmul+3,___flmul@prod+3
  2728  00104E  4A2B               	infsnz	___flmul@temp^(0+1280),f,c
  2729  001050  2A2C               	incf	(___flmul@temp+1)^(0+1280),f,c
  2730  001052                     l2250:
  2731  001052  BE2C               	btfsc	(___flmul@temp+1)^(0+1280),7,c
  2732  001054  EF34  F008         	goto	u1941
  2733  001058  502C               	movf	(___flmul@temp+1)^(0+1280),w,c
  2734  00105A  E108               	bnz	u1940
  2735  00105C  282B               	incf	___flmul@temp^(0+1280),w,c
  2736  00105E  A0D8               	btfss	status,0,c
  2737  001060  EF34  F008         	goto	u1941
  2738  001064  EF36  F008         	goto	u1940
  2739  001068                     u1941:
  2740  001068  EF40  F008         	goto	l2254
  2741  00106C                     u1940:
  2742  00106C  0E00               	movlw	0
  2743  00106E  6E27               	movwf	___flmul@prod^(0+1280),c
  2744  001070  0E00               	movlw	0
  2745  001072  6E28               	movwf	(___flmul@prod+1)^(0+1280),c
  2746  001074  0E80               	movlw	128
  2747  001076  6E29               	movwf	(___flmul@prod+2)^(0+1280),c
  2748  001078  0E7F               	movlw	127
  2749  00107A  6E2A               	movwf	(___flmul@prod+3)^(0+1280),c
  2750  00107C  EF6E  F008         	goto	l2266
  2751  001080                     l2254:
  2752  001080  BE2C               	btfsc	(___flmul@temp+1)^(0+1280),7,c
  2753  001082  EF4D  F008         	goto	u1950
  2754  001086  502C               	movf	(___flmul@temp+1)^(0+1280),w,c
  2755  001088  E106               	bnz	u1951
  2756  00108A  042B               	decf	___flmul@temp^(0+1280),w,c
  2757  00108C  B0D8               	btfsc	status,0,c
  2758  00108E  EF4B  F008         	goto	u1951
  2759  001092  EF4D  F008         	goto	u1950
  2760  001096                     u1951:
  2761  001096  EF59  F008         	goto	l888
  2762  00109A                     u1950:
  2763  00109A  0E00               	movlw	0
  2764  00109C  6E27               	movwf	___flmul@prod^(0+1280),c
  2765  00109E  0E00               	movlw	0
  2766  0010A0  6E28               	movwf	(___flmul@prod+1)^(0+1280),c
  2767  0010A2  0E00               	movlw	0
  2768  0010A4  6E29               	movwf	(___flmul@prod+2)^(0+1280),c
  2769  0010A6  0E00               	movlw	0
  2770  0010A8  6E2A               	movwf	(___flmul@prod+3)^(0+1280),c
  2771  0010AA  0E00               	movlw	0
  2772  0010AC  6E20               	movwf	___flmul@sign^(0+1280),c
  2773  0010AE  EF6E  F008         	goto	l2266
  2774  0010B2                     l888:
  2775  0010B2  C52B  F526         	movff	___flmul@temp,___flmul@bexp
  2776  0010B6  0EFF               	movlw	255
  2777  0010B8  1627               	andwf	___flmul@prod^(0+1280),f,c
  2778  0010BA  0EFF               	movlw	255
  2779  0010BC  1628               	andwf	(___flmul@prod+1)^(0+1280),f,c
  2780  0010BE  0E7F               	movlw	127
  2781  0010C0  1629               	andwf	(___flmul@prod+2)^(0+1280),f,c
  2782  0010C2  0E00               	movlw	0
  2783  0010C4  162A               	andwf	(___flmul@prod+3)^(0+1280),f,c
  2784  0010C6  A026               	btfss	___flmul@bexp^(0+1280),0,c
  2785  0010C8  EF68  F008         	goto	u1961
  2786  0010CC  EF6A  F008         	goto	u1960
  2787  0010D0                     u1961:
  2788  0010D0  EF6B  F008         	goto	l2264
  2789  0010D4                     u1960:
  2790  0010D4  8E29               	bsf	(___flmul@prod+2)^(0+1280),7,c
  2791  0010D6                     l2264:
  2792  0010D6  90D8               	bcf	status,0,c
  2793  0010D8  3026               	rrcf	___flmul@bexp^(0+1280),w,c
  2794  0010DA  6E2A               	movwf	(___flmul@prod+3)^(0+1280),c
  2795  0010DC                     l2266:
  2796  0010DC  5020               	movf	___flmul@sign^(0+1280),w,c
  2797  0010DE  122A               	iorwf	(___flmul@prod+3)^(0+1280),f,c
  2798  0010E0  C527  F514         	movff	___flmul@prod,?___flmul
  2799  0010E4  C528  F515         	movff	___flmul@prod+1,?___flmul+1
  2800  0010E8  C529  F516         	movff	___flmul@prod+2,?___flmul+2
  2801  0010EC  C52A  F517         	movff	___flmul@prod+3,?___flmul+3
  2802  0010F0                     l875:
  2803  0010F0  0012               	return		;funcret
  2804  0010F2                     __end_of___flmul:
  2805                           	callstack 0
  2806                           
  2807 ;; *************** function ___flge *****************
  2808 ;; Defined at:
  2809 ;;		line 4 in file "C:\Program Files\Microchip\xc8\v2.32\pic\sources\c99\common\flge.c"
  2810 ;; Parameters:    Size  Location     Type
  2811 ;;  ff1             4    0[COMRAM] unsigned char 
  2812 ;;  ff2             4    4[COMRAM] unsigned char 
  2813 ;; Auto vars:     Size  Location     Type
  2814 ;;		None
  2815 ;; Return value:  Size  Location     Type
  2816 ;;		None               void
  2817 ;; Registers used:
  2818 ;;		wreg, status,2, status,0
  2819 ;; Tracked objects:
  2820 ;;		On entry : 0/0
  2821 ;;		On exit  : 0/0
  2822 ;;		Unchanged: 0/0
  2823 ;; Data sizes:     COMRAM   BANK5   BANK6   BANK7   BANK8   BANK9  BANK10  BANK11  BANK12  BANK13  BANK14  BANK15  BANK1
      +6  BANK17  BANK18  BANK19  BANK20  BANK21  BANK22  BANK23  BANK24  BANK25  BANK26  BANK27  BANK28  BANK29  BANK30  BANK3
      +1  BANK32  BANK33  BANK34  BANK35  BANK36  BANK37
  2824 ;;      Params:         8       0       0       0       0       0       0       0       0       0       0       0       
      +0       0       0       0       0       0       0       0       0       0       0       0       0       0       0       
      +0       0       0       0       0       0       0
  2825 ;;      Locals:         0       0       0       0       0       0       0       0       0       0       0       0       
      +0       0       0       0       0       0       0       0       0       0       0       0       0       0       0       
      +0       0       0       0       0       0       0
  2826 ;;      Temps:          4       0       0       0       0       0       0       0       0       0       0       0       
      +0       0       0       0       0       0       0       0       0       0       0       0       0       0       0       
      +0       0       0       0       0       0       0
  2827 ;;      Totals:        12       0       0       0       0       0       0       0       0       0       0       0       
      +0       0       0       0       0       0       0       0       0       0       0       0       0       0       0       
      +0       0       0       0       0       0       0
  2828 ;;Total ram usage:       12 bytes
  2829 ;; Hardware stack levels used: 1
  2830 ;; Hardware stack levels required when called: 2
  2831 ;; This function calls:
  2832 ;;		Nothing
  2833 ;; This function is called by:
  2834 ;;		_main
  2835 ;; This function uses a non-reentrant model
  2836 ;;
  2837                           
  2838                           	psect	text7
  2839  001746                     __ptext7:
  2840                           	callstack 0
  2841  001746                     ___flge:
  2842                           	callstack 124
  2843  001746  0E00               	movlw	0
  2844  001748  1401               	andwf	___flge@ff1^(0+1280),w,c
  2845  00174A  6E09               	movwf	??___flge^(0+1280),c
  2846  00174C  0E00               	movlw	0
  2847  00174E  1402               	andwf	(___flge@ff1+1)^(0+1280),w,c
  2848  001750  6E0A               	movwf	(??___flge+1)^(0+1280),c
  2849  001752  0E80               	movlw	128
  2850  001754  1403               	andwf	(___flge@ff1+2)^(0+1280),w,c
  2851  001756  6E0B               	movwf	(??___flge+2)^(0+1280),c
  2852  001758  0E7F               	movlw	127
  2853  00175A  1404               	andwf	(___flge@ff1+3)^(0+1280),w,c
  2854  00175C  6E0C               	movwf	(??___flge+3)^(0+1280),c
  2855  00175E  5009               	movf	??___flge^(0+1280),w,c
  2856  001760  100A               	iorwf	(??___flge+1)^(0+1280),w,c
  2857  001762  100B               	iorwf	(??___flge+2)^(0+1280),w,c
  2858  001764  100C               	iorwf	(??___flge+3)^(0+1280),w,c
  2859  001766  A4D8               	btfss	status,2,c
  2860  001768  EFB8  F00B         	goto	u1971
  2861  00176C  EFBA  F00B         	goto	u1970
  2862  001770                     u1971:
  2863  001770  EFC2  F00B         	goto	l2282
  2864  001774                     u1970:
  2865  001774  0E00               	movlw	0
  2866  001776  6E01               	movwf	___flge@ff1^(0+1280),c
  2867  001778  0E00               	movlw	0
  2868  00177A  6E02               	movwf	(___flge@ff1+1)^(0+1280),c
  2869  00177C  0E00               	movlw	0
  2870  00177E  6E03               	movwf	(___flge@ff1+2)^(0+1280),c
  2871  001780  0E00               	movlw	0
  2872  001782  6E04               	movwf	(___flge@ff1+3)^(0+1280),c
  2873  001784                     l2282:
  2874  001784  0E00               	movlw	0
  2875  001786  1405               	andwf	___flge@ff2^(0+1280),w,c
  2876  001788  6E09               	movwf	??___flge^(0+1280),c
  2877  00178A  0E00               	movlw	0
  2878  00178C  1406               	andwf	(___flge@ff2+1)^(0+1280),w,c
  2879  00178E  6E0A               	movwf	(??___flge+1)^(0+1280),c
  2880  001790  0E80               	movlw	128
  2881  001792  1407               	andwf	(___flge@ff2+2)^(0+1280),w,c
  2882  001794  6E0B               	movwf	(??___flge+2)^(0+1280),c
  2883  001796  0E7F               	movlw	127
  2884  001798  1408               	andwf	(___flge@ff2+3)^(0+1280),w,c
  2885  00179A  6E0C               	movwf	(??___flge+3)^(0+1280),c
  2886  00179C  5009               	movf	??___flge^(0+1280),w,c
  2887  00179E  100A               	iorwf	(??___flge+1)^(0+1280),w,c
  2888  0017A0  100B               	iorwf	(??___flge+2)^(0+1280),w,c
  2889  0017A2  100C               	iorwf	(??___flge+3)^(0+1280),w,c
  2890  0017A4  A4D8               	btfss	status,2,c
  2891  0017A6  EFD7  F00B         	goto	u1981
  2892  0017AA  EFD9  F00B         	goto	u1980
  2893  0017AE                     u1981:
  2894  0017AE  EFE1  F00B         	goto	l2286
  2895  0017B2                     u1980:
  2896  0017B2  0E00               	movlw	0
  2897  0017B4  6E05               	movwf	___flge@ff2^(0+1280),c
  2898  0017B6  0E00               	movlw	0
  2899  0017B8  6E06               	movwf	(___flge@ff2+1)^(0+1280),c
  2900  0017BA  0E00               	movlw	0
  2901  0017BC  6E07               	movwf	(___flge@ff2+2)^(0+1280),c
  2902  0017BE  0E00               	movlw	0
  2903  0017C0  6E08               	movwf	(___flge@ff2+3)^(0+1280),c
  2904  0017C2                     l2286:
  2905  0017C2  AE04               	btfss	(___flge@ff1+3)^(0+1280),7,c
  2906  0017C4  EFE6  F00B         	goto	u1991
  2907  0017C8  EFE8  F00B         	goto	u1990
  2908  0017CC                     u1991:
  2909  0017CC  EFF1  F00B         	goto	l2290
  2910  0017D0                     u1990:
  2911  0017D0  6C01               	negf	___flge@ff1^(0+1280),c
  2912  0017D2  1E02               	comf	(___flge@ff1+1)^(0+1280),f,c
  2913  0017D4  B0D8               	btfsc	status,0,c
  2914  0017D6  2A02               	incf	(___flge@ff1+1)^(0+1280),f,c
  2915  0017D8  1E03               	comf	(___flge@ff1+2)^(0+1280),f,c
  2916  0017DA  B0D8               	btfsc	status,0,c
  2917  0017DC  2A03               	incf	(___flge@ff1+2)^(0+1280),f,c
  2918  0017DE  0E80               	movlw	128
  2919  0017E0  5604               	subfwb	(___flge@ff1+3)^(0+1280),f,c
  2920  0017E2                     l2290:
  2921  0017E2  AE08               	btfss	(___flge@ff2+3)^(0+1280),7,c
  2922  0017E4  EFF6  F00B         	goto	u2001
  2923  0017E8  EFF8  F00B         	goto	u2000
  2924  0017EC                     u2001:
  2925  0017EC  EF01  F00C         	goto	l522
  2926  0017F0                     u2000:
  2927  0017F0  6C05               	negf	___flge@ff2^(0+1280),c
  2928  0017F2  1E06               	comf	(___flge@ff2+1)^(0+1280),f,c
  2929  0017F4  B0D8               	btfsc	status,0,c
  2930  0017F6  2A06               	incf	(___flge@ff2+1)^(0+1280),f,c
  2931  0017F8  1E07               	comf	(___flge@ff2+2)^(0+1280),f,c
  2932  0017FA  B0D8               	btfsc	status,0,c
  2933  0017FC  2A07               	incf	(___flge@ff2+2)^(0+1280),f,c
  2934  0017FE  0E80               	movlw	128
  2935  001800  5608               	subfwb	(___flge@ff2+3)^(0+1280),f,c
  2936  001802                     l522:
  2937  001802  0E00               	movlw	0
  2938  001804  1A01               	xorwf	___flge@ff1^(0+1280),f,c
  2939  001806  0E00               	movlw	0
  2940  001808  1A02               	xorwf	(___flge@ff1+1)^(0+1280),f,c
  2941  00180A  0E00               	movlw	0
  2942  00180C  1A03               	xorwf	(___flge@ff1+2)^(0+1280),f,c
  2943  00180E  0E80               	movlw	128
  2944  001810  1A04               	xorwf	(___flge@ff1+3)^(0+1280),f,c
  2945  001812  0E00               	movlw	0
  2946  001814  1A05               	xorwf	___flge@ff2^(0+1280),f,c
  2947  001816  0E00               	movlw	0
  2948  001818  1A06               	xorwf	(___flge@ff2+1)^(0+1280),f,c
  2949  00181A  0E00               	movlw	0
  2950  00181C  1A07               	xorwf	(___flge@ff2+2)^(0+1280),f,c
  2951  00181E  0E80               	movlw	128
  2952  001820  1A08               	xorwf	(___flge@ff2+3)^(0+1280),f,c
  2953  001822  5005               	movf	___flge@ff2^(0+1280),w,c
  2954  001824  5C01               	subwf	___flge@ff1^(0+1280),w,c
  2955  001826  5006               	movf	(___flge@ff2+1)^(0+1280),w,c
  2956  001828  5802               	subwfb	(___flge@ff1+1)^(0+1280),w,c
  2957  00182A  5007               	movf	(___flge@ff2+2)^(0+1280),w,c
  2958  00182C  5803               	subwfb	(___flge@ff1+2)^(0+1280),w,c
  2959  00182E  5008               	movf	(___flge@ff2+3)^(0+1280),w,c
  2960  001830  5804               	subwfb	(___flge@ff1+3)^(0+1280),w,c
  2961  001832  B0D8               	btfsc	status,0,c
  2962  001834  EF1E  F00C         	goto	u2011
  2963  001838  EF20  F00C         	goto	u2010
  2964  00183C                     u2011:
  2965  00183C  EF23  F00C         	goto	l2296
  2966  001840                     u2010:
  2967  001840  90D8               	bcf	status,0,c
  2968  001842  EF24  F00C         	goto	l527
  2969  001846                     l2296:
  2970  001846  80D8               	bsf	status,0,c
  2971  001848                     l527:
  2972  001848  0012               	return		;funcret
  2973  00184A                     __end_of___flge:
  2974                           	callstack 0
  2975                           
  2976 ;; *************** function ___fldiv *****************
  2977 ;; Defined at:
  2978 ;;		line 11 in file "C:\Program Files\Microchip\xc8\v2.32\pic\sources\c99\common\sprcdiv.c"
  2979 ;; Parameters:    Size  Location     Type
  2980 ;;  b               4   44[COMRAM] unsigned char 
  2981 ;;  a               4   48[COMRAM] unsigned char 
  2982 ;; Auto vars:     Size  Location     Type
  2983 ;;  grs             4   63[COMRAM] unsigned long 
  2984 ;;  rem             4   56[COMRAM] unsigned long 
  2985 ;;  new_exp         2   61[COMRAM] short 
  2986 ;;  aexp            1   68[COMRAM] unsigned char 
  2987 ;;  bexp            1   67[COMRAM] unsigned char 
  2988 ;;  sign            1   60[COMRAM] unsigned char 
  2989 ;; Return value:  Size  Location     Type
  2990 ;;                  4   44[COMRAM] unsigned char 
  2991 ;; Registers used:
  2992 ;;		wreg, status,2, status,0
  2993 ;; Tracked objects:
  2994 ;;		On entry : 0/0
  2995 ;;		On exit  : 0/0
  2996 ;;		Unchanged: 0/0
  2997 ;; Data sizes:     COMRAM   BANK5   BANK6   BANK7   BANK8   BANK9  BANK10  BANK11  BANK12  BANK13  BANK14  BANK15  BANK1
      +6  BANK17  BANK18  BANK19  BANK20  BANK21  BANK22  BANK23  BANK24  BANK25  BANK26  BANK27  BANK28  BANK29  BANK30  BANK3
      +1  BANK32  BANK33  BANK34  BANK35  BANK36  BANK37
  2998 ;;      Params:         8       0       0       0       0       0       0       0       0       0       0       0       
      +0       0       0       0       0       0       0       0       0       0       0       0       0       0       0       
      +0       0       0       0       0       0       0
  2999 ;;      Locals:        13       0       0       0       0       0       0       0       0       0       0       0       
      +0       0       0       0       0       0       0       0       0       0       0       0       0       0       0       
      +0       0       0       0       0       0       0
  3000 ;;      Temps:          4       0       0       0       0       0       0       0       0       0       0       0       
      +0       0       0       0       0       0       0       0       0       0       0       0       0       0       0       
      +0       0       0       0       0       0       0
  3001 ;;      Totals:        25       0       0       0       0       0       0       0       0       0       0       0       
      +0       0       0       0       0       0       0       0       0       0       0       0       0       0       0       
      +0       0       0       0       0       0       0
  3002 ;;Total ram usage:       25 bytes
  3003 ;; Hardware stack levels used: 1
  3004 ;; Hardware stack levels required when called: 2
  3005 ;; This function calls:
  3006 ;;		Nothing
  3007 ;; This function is called by:
  3008 ;;		_main
  3009 ;; This function uses a non-reentrant model
  3010 ;;
  3011                           
  3012                           	psect	text8
  3013  0010F2                     __ptext8:
  3014                           	callstack 0
  3015  0010F2                     ___fldiv:
  3016                           	callstack 124
  3017  0010F2  5030               	movf	(___fldiv@b+3)^(0+1280),w,c
  3018  0010F4  0B80               	andlw	128
  3019  0010F6  6E3D               	movwf	___fldiv@sign^(0+1280),c
  3020  0010F8  5030               	movf	(___fldiv@b+3)^(0+1280),w,c
  3021  0010FA  2430               	addwf	(___fldiv@b+3)^(0+1280),w,c
  3022  0010FC  6E44               	movwf	___fldiv@bexp^(0+1280),c
  3023  0010FE  AE2F               	btfss	(___fldiv@b+2)^(0+1280),7,c
  3024  001100  EF84  F008         	goto	u1551
  3025  001104  EF86  F008         	goto	u1550
  3026  001108                     u1551:
  3027  001108  EF87  F008         	goto	l2010
  3028  00110C                     u1550:
  3029  00110C  8044               	bsf	___fldiv@bexp^(0+1280),0,c
  3030  00110E                     l2010:
  3031  00110E  5044               	movf	___fldiv@bexp^(0+1280),w,c
  3032  001110  B4D8               	btfsc	status,2,c
  3033  001112  EF8D  F008         	goto	u1561
  3034  001116  EF8F  F008         	goto	u1560
  3035  00111A                     u1561:
  3036  00111A  EFA4  F008         	goto	l2020
  3037  00111E                     u1560:
  3038  00111E  2844               	incf	___fldiv@bexp^(0+1280),w,c
  3039  001120  A4D8               	btfss	status,2,c
  3040  001122  EF95  F008         	goto	u1571
  3041  001126  EF97  F008         	goto	u1570
  3042  00112A                     u1571:
  3043  00112A  EF9F  F008         	goto	l2016
  3044  00112E                     u1570:
  3045  00112E  0E00               	movlw	0
  3046  001130  6E2D               	movwf	___fldiv@b^(0+1280),c
  3047  001132  0E00               	movlw	0
  3048  001134  6E2E               	movwf	(___fldiv@b+1)^(0+1280),c
  3049  001136  0E00               	movlw	0
  3050  001138  6E2F               	movwf	(___fldiv@b+2)^(0+1280),c
  3051  00113A  0E00               	movlw	0
  3052  00113C  6E30               	movwf	(___fldiv@b+3)^(0+1280),c
  3053  00113E                     l2016:
  3054  00113E  8E2F               	bsf	(___fldiv@b+2)^(0+1280),7,c
  3055  001140  0E00               	movlw	0
  3056  001142  6E30               	movwf	(___fldiv@b+3)^(0+1280),c
  3057  001144  EFAC  F008         	goto	l2022
  3058  001148                     l2020:
  3059  001148  0E00               	movlw	0
  3060  00114A  6E2D               	movwf	___fldiv@b^(0+1280),c
  3061  00114C  0E00               	movlw	0
  3062  00114E  6E2E               	movwf	(___fldiv@b+1)^(0+1280),c
  3063  001150  0E00               	movlw	0
  3064  001152  6E2F               	movwf	(___fldiv@b+2)^(0+1280),c
  3065  001154  0E00               	movlw	0
  3066  001156  6E30               	movwf	(___fldiv@b+3)^(0+1280),c
  3067  001158                     l2022:
  3068  001158  5034               	movf	(___fldiv@a+3)^(0+1280),w,c
  3069  00115A  0B80               	andlw	128
  3070  00115C  1A3D               	xorwf	___fldiv@sign^(0+1280),f,c
  3071  00115E  5034               	movf	(___fldiv@a+3)^(0+1280),w,c
  3072  001160  2434               	addwf	(___fldiv@a+3)^(0+1280),w,c
  3073  001162  6E45               	movwf	___fldiv@aexp^(0+1280),c
  3074  001164  AE33               	btfss	(___fldiv@a+2)^(0+1280),7,c
  3075  001166  EFB7  F008         	goto	u1581
  3076  00116A  EFB9  F008         	goto	u1580
  3077  00116E                     u1581:
  3078  00116E  EFBA  F008         	goto	l2030
  3079  001172                     u1580:
  3080  001172  8045               	bsf	___fldiv@aexp^(0+1280),0,c
  3081  001174                     l2030:
  3082  001174  5045               	movf	___fldiv@aexp^(0+1280),w,c
  3083  001176  B4D8               	btfsc	status,2,c
  3084  001178  EFC0  F008         	goto	u1591
  3085  00117C  EFC2  F008         	goto	u1590
  3086  001180                     u1591:
  3087  001180  EFD7  F008         	goto	l2040
  3088  001184                     u1590:
  3089  001184  2845               	incf	___fldiv@aexp^(0+1280),w,c
  3090  001186  A4D8               	btfss	status,2,c
  3091  001188  EFC8  F008         	goto	u1601
  3092  00118C  EFCA  F008         	goto	u1600
  3093  001190                     u1601:
  3094  001190  EFD2  F008         	goto	l2036
  3095  001194                     u1600:
  3096  001194  0E00               	movlw	0
  3097  001196  6E31               	movwf	___fldiv@a^(0+1280),c
  3098  001198  0E00               	movlw	0
  3099  00119A  6E32               	movwf	(___fldiv@a+1)^(0+1280),c
  3100  00119C  0E00               	movlw	0
  3101  00119E  6E33               	movwf	(___fldiv@a+2)^(0+1280),c
  3102  0011A0  0E00               	movlw	0
  3103  0011A2  6E34               	movwf	(___fldiv@a+3)^(0+1280),c
  3104  0011A4                     l2036:
  3105  0011A4  8E33               	bsf	(___fldiv@a+2)^(0+1280),7,c
  3106  0011A6  0E00               	movlw	0
  3107  0011A8  6E34               	movwf	(___fldiv@a+3)^(0+1280),c
  3108  0011AA  EFDF  F008         	goto	l2042
  3109  0011AE                     l2040:
  3110  0011AE  0E00               	movlw	0
  3111  0011B0  6E31               	movwf	___fldiv@a^(0+1280),c
  3112  0011B2  0E00               	movlw	0
  3113  0011B4  6E32               	movwf	(___fldiv@a+1)^(0+1280),c
  3114  0011B6  0E00               	movlw	0
  3115  0011B8  6E33               	movwf	(___fldiv@a+2)^(0+1280),c
  3116  0011BA  0E00               	movlw	0
  3117  0011BC  6E34               	movwf	(___fldiv@a+3)^(0+1280),c
  3118  0011BE                     l2042:
  3119  0011BE  5031               	movf	___fldiv@a^(0+1280),w,c
  3120  0011C0  1032               	iorwf	(___fldiv@a+1)^(0+1280),w,c
  3121  0011C2  1033               	iorwf	(___fldiv@a+2)^(0+1280),w,c
  3122  0011C4  1034               	iorwf	(___fldiv@a+3)^(0+1280),w,c
  3123  0011C6  A4D8               	btfss	status,2,c
  3124  0011C8  EFE8  F008         	goto	u1611
  3125  0011CC  EFEA  F008         	goto	u1610
  3126  0011D0                     u1611:
  3127  0011D0  EF02  F009         	goto	l2054
  3128  0011D4                     u1610:
  3129  0011D4  0E00               	movlw	0
  3130  0011D6  6E2D               	movwf	___fldiv@b^(0+1280),c
  3131  0011D8  0E00               	movlw	0
  3132  0011DA  6E2E               	movwf	(___fldiv@b+1)^(0+1280),c
  3133  0011DC  0E00               	movlw	0
  3134  0011DE  6E2F               	movwf	(___fldiv@b+2)^(0+1280),c
  3135  0011E0  0E00               	movlw	0
  3136  0011E2  6E30               	movwf	(___fldiv@b+3)^(0+1280),c
  3137  0011E4  0E80               	movlw	128
  3138  0011E6  122F               	iorwf	(___fldiv@b+2)^(0+1280),f,c
  3139  0011E8  0E7F               	movlw	127
  3140  0011EA  1230               	iorwf	(___fldiv@b+3)^(0+1280),f,c
  3141  0011EC                     l2048:
  3142  0011EC  503D               	movf	___fldiv@sign^(0+1280),w,c
  3143  0011EE  1230               	iorwf	(___fldiv@b+3)^(0+1280),f,c
  3144  0011F0  C52D  F52D         	movff	___fldiv@b,?___fldiv
  3145  0011F4  C52E  F52E         	movff	___fldiv@b+1,?___fldiv+1
  3146  0011F8  C52F  F52F         	movff	___fldiv@b+2,?___fldiv+2
  3147  0011FC  C530  F530         	movff	___fldiv@b+3,?___fldiv+3
  3148  001200  EF45  F00A         	goto	l839
  3149  001204                     l2054:
  3150  001204  5044               	movf	___fldiv@bexp^(0+1280),w,c
  3151  001206  A4D8               	btfss	status,2,c
  3152  001208  EF08  F009         	goto	u1621
  3153  00120C  EF0A  F009         	goto	u1620
  3154  001210                     u1621:
  3155  001210  EF14  F009         	goto	l2062
  3156  001214                     u1620:
  3157  001214  0E00               	movlw	0
  3158  001216  6E2D               	movwf	?___fldiv^(0+1280),c
  3159  001218  0E00               	movlw	0
  3160  00121A  6E2E               	movwf	(?___fldiv+1)^(0+1280),c
  3161  00121C  0E00               	movlw	0
  3162  00121E  6E2F               	movwf	(?___fldiv+2)^(0+1280),c
  3163  001220  0E00               	movlw	0
  3164  001222  6E30               	movwf	(?___fldiv+3)^(0+1280),c
  3165  001224  EF45  F00A         	goto	l839
  3166  001228                     l2062:
  3167  001228  5045               	movf	___fldiv@aexp^(0+1280),w,c
  3168  00122A  C544  F535         	movff	___fldiv@bexp,??___fldiv
  3169  00122E  6A36               	clrf	(??___fldiv+1)^(0+1280),c
  3170  001230  5E35               	subwf	??___fldiv^(0+1280),f,c
  3171  001232  0E00               	movlw	0
  3172  001234  5A36               	subwfb	(??___fldiv+1)^(0+1280),f,c
  3173  001236  0E7F               	movlw	127
  3174  001238  2435               	addwf	??___fldiv^(0+1280),w,c
  3175  00123A  6E3E               	movwf	___fldiv@new_exp^(0+1280),c
  3176  00123C  0E00               	movlw	0
  3177  00123E  2036               	addwfc	(??___fldiv+1)^(0+1280),w,c
  3178  001240  6E3F               	movwf	(___fldiv@new_exp+1)^(0+1280),c
  3179  001242  C52D  F539         	movff	___fldiv@b,___fldiv@rem
  3180  001246  C52E  F53A         	movff	___fldiv@b+1,___fldiv@rem+1
  3181  00124A  C52F  F53B         	movff	___fldiv@b+2,___fldiv@rem+2
  3182  00124E  C530  F53C         	movff	___fldiv@b+3,___fldiv@rem+3
  3183  001252  0E00               	movlw	0
  3184  001254  6E2D               	movwf	___fldiv@b^(0+1280),c
  3185  001256  0E00               	movlw	0
  3186  001258  6E2E               	movwf	(___fldiv@b+1)^(0+1280),c
  3187  00125A  0E00               	movlw	0
  3188  00125C  6E2F               	movwf	(___fldiv@b+2)^(0+1280),c
  3189  00125E  0E00               	movlw	0
  3190  001260  6E30               	movwf	(___fldiv@b+3)^(0+1280),c
  3191  001262  0E00               	movlw	0
  3192  001264  6E40               	movwf	___fldiv@grs^(0+1280),c
  3193  001266  0E00               	movlw	0
  3194  001268  6E41               	movwf	(___fldiv@grs+1)^(0+1280),c
  3195  00126A  0E00               	movlw	0
  3196  00126C  6E42               	movwf	(___fldiv@grs+2)^(0+1280),c
  3197  00126E  0E00               	movlw	0
  3198  001270  6E43               	movwf	(___fldiv@grs+3)^(0+1280),c
  3199  001272  0E00               	movlw	0
  3200  001274  6E45               	movwf	___fldiv@aexp^(0+1280),c
  3201  001276  EF75  F009         	goto	l841
  3202  00127A                     l2072:
  3203  00127A  5045               	movf	___fldiv@aexp^(0+1280),w,c
  3204  00127C  B4D8               	btfsc	status,2,c
  3205  00127E  EF43  F009         	goto	u1631
  3206  001282  EF45  F009         	goto	u1630
  3207  001286                     u1631:
  3208  001286  EF5C  F009         	goto	l2080
  3209  00128A                     u1630:
  3210  00128A  90D8               	bcf	status,0,c
  3211  00128C  3639               	rlcf	___fldiv@rem^(0+1280),f,c
  3212  00128E  363A               	rlcf	(___fldiv@rem+1)^(0+1280),f,c
  3213  001290  363B               	rlcf	(___fldiv@rem+2)^(0+1280),f,c
  3214  001292  363C               	rlcf	(___fldiv@rem+3)^(0+1280),f,c
  3215  001294  90D8               	bcf	status,0,c
  3216  001296  362D               	rlcf	___fldiv@b^(0+1280),f,c
  3217  001298  362E               	rlcf	(___fldiv@b+1)^(0+1280),f,c
  3218  00129A  362F               	rlcf	(___fldiv@b+2)^(0+1280),f,c
  3219  00129C  3630               	rlcf	(___fldiv@b+3)^(0+1280),f,c
  3220  00129E  AE43               	btfss	(___fldiv@grs+3)^(0+1280),7,c
  3221  0012A0  EF54  F009         	goto	u1641
  3222  0012A4  EF56  F009         	goto	u1640
  3223  0012A8                     u1641:
  3224  0012A8  EF57  F009         	goto	l844
  3225  0012AC                     u1640:
  3226  0012AC  802D               	bsf	___fldiv@b^(0+1280),0,c
  3227  0012AE                     l844:
  3228  0012AE  90D8               	bcf	status,0,c
  3229  0012B0  3640               	rlcf	___fldiv@grs^(0+1280),f,c
  3230  0012B2  3641               	rlcf	(___fldiv@grs+1)^(0+1280),f,c
  3231  0012B4  3642               	rlcf	(___fldiv@grs+2)^(0+1280),f,c
  3232  0012B6  3643               	rlcf	(___fldiv@grs+3)^(0+1280),f,c
  3233  0012B8                     l2080:
  3234  0012B8  5031               	movf	___fldiv@a^(0+1280),w,c
  3235  0012BA  5C39               	subwf	___fldiv@rem^(0+1280),w,c
  3236  0012BC  5032               	movf	(___fldiv@a+1)^(0+1280),w,c
  3237  0012BE  583A               	subwfb	(___fldiv@rem+1)^(0+1280),w,c
  3238  0012C0  5033               	movf	(___fldiv@a+2)^(0+1280),w,c
  3239  0012C2  583B               	subwfb	(___fldiv@rem+2)^(0+1280),w,c
  3240  0012C4  5034               	movf	(___fldiv@a+3)^(0+1280),w,c
  3241  0012C6  583C               	subwfb	(___fldiv@rem+3)^(0+1280),w,c
  3242  0012C8  A0D8               	btfss	status,0,c
  3243  0012CA  EF69  F009         	goto	u1651
  3244  0012CE  EF6B  F009         	goto	u1650
  3245  0012D2                     u1651:
  3246  0012D2  EF74  F009         	goto	l2086
  3247  0012D6                     u1650:
  3248  0012D6  8C43               	bsf	(___fldiv@grs+3)^(0+1280),6,c
  3249  0012D8  5031               	movf	___fldiv@a^(0+1280),w,c
  3250  0012DA  5E39               	subwf	___fldiv@rem^(0+1280),f,c
  3251  0012DC  5032               	movf	(___fldiv@a+1)^(0+1280),w,c
  3252  0012DE  5A3A               	subwfb	(___fldiv@rem+1)^(0+1280),f,c
  3253  0012E0  5033               	movf	(___fldiv@a+2)^(0+1280),w,c
  3254  0012E2  5A3B               	subwfb	(___fldiv@rem+2)^(0+1280),f,c
  3255  0012E4  5034               	movf	(___fldiv@a+3)^(0+1280),w,c
  3256  0012E6  5A3C               	subwfb	(___fldiv@rem+3)^(0+1280),f,c
  3257  0012E8                     l2086:
  3258  0012E8  2A45               	incf	___fldiv@aexp^(0+1280),f,c
  3259  0012EA                     l841:
  3260  0012EA  0E19               	movlw	25
  3261  0012EC  6445               	cpfsgt	___fldiv@aexp^(0+1280),c
  3262  0012EE  EF7B  F009         	goto	u1661
  3263  0012F2  EF7D  F009         	goto	u1660
  3264  0012F6                     u1661:
  3265  0012F6  EF3D  F009         	goto	l2072
  3266  0012FA                     u1660:
  3267  0012FA  5039               	movf	___fldiv@rem^(0+1280),w,c
  3268  0012FC  103A               	iorwf	(___fldiv@rem+1)^(0+1280),w,c
  3269  0012FE  103B               	iorwf	(___fldiv@rem+2)^(0+1280),w,c
  3270  001300  103C               	iorwf	(___fldiv@rem+3)^(0+1280),w,c
  3271  001302  B4D8               	btfsc	status,2,c
  3272  001304  EF86  F009         	goto	u1671
  3273  001308  EF88  F009         	goto	u1670
  3274  00130C                     u1671:
  3275  00130C  EFA0  F009         	goto	l2098
  3276  001310                     u1670:
  3277  001310  8040               	bsf	___fldiv@grs^(0+1280),0,c
  3278  001312  EFA0  F009         	goto	l2098
  3279  001316                     l2092:
  3280  001316  90D8               	bcf	status,0,c
  3281  001318  362D               	rlcf	___fldiv@b^(0+1280),f,c
  3282  00131A  362E               	rlcf	(___fldiv@b+1)^(0+1280),f,c
  3283  00131C  362F               	rlcf	(___fldiv@b+2)^(0+1280),f,c
  3284  00131E  3630               	rlcf	(___fldiv@b+3)^(0+1280),f,c
  3285  001320  AE43               	btfss	(___fldiv@grs+3)^(0+1280),7,c
  3286  001322  EF95  F009         	goto	u1681
  3287  001326  EF97  F009         	goto	u1680
  3288  00132A                     u1681:
  3289  00132A  EF98  F009         	goto	l850
  3290  00132E                     u1680:
  3291  00132E  802D               	bsf	___fldiv@b^(0+1280),0,c
  3292  001330                     l850:
  3293  001330  90D8               	bcf	status,0,c
  3294  001332  3640               	rlcf	___fldiv@grs^(0+1280),f,c
  3295  001334  3641               	rlcf	(___fldiv@grs+1)^(0+1280),f,c
  3296  001336  3642               	rlcf	(___fldiv@grs+2)^(0+1280),f,c
  3297  001338  3643               	rlcf	(___fldiv@grs+3)^(0+1280),f,c
  3298  00133A  063E               	decf	___fldiv@new_exp^(0+1280),f,c
  3299  00133C  A0D8               	btfss	status,0,c
  3300  00133E  063F               	decf	(___fldiv@new_exp+1)^(0+1280),f,c
  3301  001340                     l2098:
  3302  001340  AE2F               	btfss	(___fldiv@b+2)^(0+1280),7,c
  3303  001342  EFA5  F009         	goto	u1691
  3304  001346  EFA7  F009         	goto	u1690
  3305  00134A                     u1691:
  3306  00134A  EF8B  F009         	goto	l2092
  3307  00134E                     u1690:
  3308  00134E  0E00               	movlw	0
  3309  001350  6E45               	movwf	___fldiv@aexp^(0+1280),c
  3310  001352  AE43               	btfss	(___fldiv@grs+3)^(0+1280),7,c
  3311  001354  EFAE  F009         	goto	u1701
  3312  001358  EFB0  F009         	goto	u1700
  3313  00135C                     u1701:
  3314  00135C  EFD4  F009         	goto	l852
  3315  001360                     u1700:
  3316  001360  0EFF               	movlw	255
  3317  001362  1440               	andwf	___fldiv@grs^(0+1280),w,c
  3318  001364  6E35               	movwf	??___fldiv^(0+1280),c
  3319  001366  0EFF               	movlw	255
  3320  001368  1441               	andwf	(___fldiv@grs+1)^(0+1280),w,c
  3321  00136A  6E36               	movwf	(??___fldiv+1)^(0+1280),c
  3322  00136C  0EFF               	movlw	255
  3323  00136E  1442               	andwf	(___fldiv@grs+2)^(0+1280),w,c
  3324  001370  6E37               	movwf	(??___fldiv+2)^(0+1280),c
  3325  001372  0E7F               	movlw	127
  3326  001374  1443               	andwf	(___fldiv@grs+3)^(0+1280),w,c
  3327  001376  6E38               	movwf	(??___fldiv+3)^(0+1280),c
  3328  001378  5035               	movf	??___fldiv^(0+1280),w,c
  3329  00137A  1036               	iorwf	(??___fldiv+1)^(0+1280),w,c
  3330  00137C  1037               	iorwf	(??___fldiv+2)^(0+1280),w,c
  3331  00137E  1038               	iorwf	(??___fldiv+3)^(0+1280),w,c
  3332  001380  B4D8               	btfsc	status,2,c
  3333  001382  EFC5  F009         	goto	u1711
  3334  001386  EFC7  F009         	goto	u1710
  3335  00138A                     u1711:
  3336  00138A  EFCB  F009         	goto	l853
  3337  00138E                     u1710:
  3338  00138E                     l2106:
  3339  00138E  0E01               	movlw	1
  3340  001390  6E45               	movwf	___fldiv@aexp^(0+1280),c
  3341  001392  EFD4  F009         	goto	l852
  3342  001396                     l853:
  3343  001396  A02D               	btfss	___fldiv@b^(0+1280),0,c
  3344  001398  EFD0  F009         	goto	u1721
  3345  00139C  EFD2  F009         	goto	u1720
  3346  0013A0                     u1721:
  3347  0013A0  EFD4  F009         	goto	l852
  3348  0013A4                     u1720:
  3349  0013A4  EFC7  F009         	goto	l2106
  3350  0013A8                     l852:
  3351  0013A8  5045               	movf	___fldiv@aexp^(0+1280),w,c
  3352  0013AA  B4D8               	btfsc	status,2,c
  3353  0013AC  EFDA  F009         	goto	u1731
  3354  0013B0  EFDC  F009         	goto	u1730
  3355  0013B4                     u1731:
  3356  0013B4  EF00  F00A         	goto	l2118
  3357  0013B8                     u1730:
  3358  0013B8  0E01               	movlw	1
  3359  0013BA  262D               	addwf	___fldiv@b^(0+1280),f,c
  3360  0013BC  0E00               	movlw	0
  3361  0013BE  222E               	addwfc	(___fldiv@b+1)^(0+1280),f,c
  3362  0013C0  222F               	addwfc	(___fldiv@b+2)^(0+1280),f,c
  3363  0013C2  2230               	addwfc	(___fldiv@b+3)^(0+1280),f,c
  3364  0013C4  A030               	btfss	(___fldiv@b+3)^(0+1280),0,c
  3365  0013C6  EFE7  F009         	goto	u1741
  3366  0013CA  EFE9  F009         	goto	u1740
  3367  0013CE                     u1741:
  3368  0013CE  EF00  F00A         	goto	l2118
  3369  0013D2                     u1740:
  3370  0013D2  C52D  F535         	movff	___fldiv@b,??___fldiv
  3371  0013D6  C52E  F536         	movff	___fldiv@b+1,??___fldiv+1
  3372  0013DA  C52F  F537         	movff	___fldiv@b+2,??___fldiv+2
  3373  0013DE  C530  F538         	movff	___fldiv@b+3,??___fldiv+3
  3374  0013E2  3438               	rlcf	(??___fldiv+3)^(0+1280),w,c
  3375  0013E4  3238               	rrcf	(??___fldiv+3)^(0+1280),f,c
  3376  0013E6  3237               	rrcf	(??___fldiv+2)^(0+1280),f,c
  3377  0013E8  3236               	rrcf	(??___fldiv+1)^(0+1280),f,c
  3378  0013EA  3235               	rrcf	??___fldiv^(0+1280),f,c
  3379  0013EC  C535  F52D         	movff	??___fldiv,___fldiv@b
  3380  0013F0  C536  F52E         	movff	??___fldiv+1,___fldiv@b+1
  3381  0013F4  C537  F52F         	movff	??___fldiv+2,___fldiv@b+2
  3382  0013F8  C538  F530         	movff	??___fldiv+3,___fldiv@b+3
  3383  0013FC  4A3E               	infsnz	___fldiv@new_exp^(0+1280),f,c
  3384  0013FE  2A3F               	incf	(___fldiv@new_exp+1)^(0+1280),f,c
  3385  001400                     l2118:
  3386  001400  BE3F               	btfsc	(___fldiv@new_exp+1)^(0+1280),7,c
  3387  001402  EF0B  F00A         	goto	u1751
  3388  001406  503F               	movf	(___fldiv@new_exp+1)^(0+1280),w,c
  3389  001408  E108               	bnz	u1750
  3390  00140A  283E               	incf	___fldiv@new_exp^(0+1280),w,c
  3391  00140C  A0D8               	btfss	status,0,c
  3392  00140E  EF0B  F00A         	goto	u1751
  3393  001412  EF0D  F00A         	goto	u1750
  3394  001416                     u1751:
  3395  001416  EF18  F00A         	goto	l2122
  3396  00141A                     u1750:
  3397  00141A  0E00               	movlw	0
  3398  00141C  6E3F               	movwf	(___fldiv@new_exp+1)^(0+1280),c
  3399  00141E  683E               	setf	___fldiv@new_exp^(0+1280),c
  3400  001420  0E00               	movlw	0
  3401  001422  6E2D               	movwf	___fldiv@b^(0+1280),c
  3402  001424  0E00               	movlw	0
  3403  001426  6E2E               	movwf	(___fldiv@b+1)^(0+1280),c
  3404  001428  0E00               	movlw	0
  3405  00142A  6E2F               	movwf	(___fldiv@b+2)^(0+1280),c
  3406  00142C  0E00               	movlw	0
  3407  00142E  6E30               	movwf	(___fldiv@b+3)^(0+1280),c
  3408  001430                     l2122:
  3409  001430  BE3F               	btfsc	(___fldiv@new_exp+1)^(0+1280),7,c
  3410  001432  EF25  F00A         	goto	u1760
  3411  001436  503F               	movf	(___fldiv@new_exp+1)^(0+1280),w,c
  3412  001438  E106               	bnz	u1761
  3413  00143A  043E               	decf	___fldiv@new_exp^(0+1280),w,c
  3414  00143C  B0D8               	btfsc	status,0,c
  3415  00143E  EF23  F00A         	goto	u1761
  3416  001442  EF25  F00A         	goto	u1760
  3417  001446                     u1761:
  3418  001446  EF33  F00A         	goto	l2126
  3419  00144A                     u1760:
  3420  00144A  0E00               	movlw	0
  3421  00144C  6E3F               	movwf	(___fldiv@new_exp+1)^(0+1280),c
  3422  00144E  0E00               	movlw	0
  3423  001450  6E3E               	movwf	___fldiv@new_exp^(0+1280),c
  3424  001452  0E00               	movlw	0
  3425  001454  6E2D               	movwf	___fldiv@b^(0+1280),c
  3426  001456  0E00               	movlw	0
  3427  001458  6E2E               	movwf	(___fldiv@b+1)^(0+1280),c
  3428  00145A  0E00               	movlw	0
  3429  00145C  6E2F               	movwf	(___fldiv@b+2)^(0+1280),c
  3430  00145E  0E00               	movlw	0
  3431  001460  6E30               	movwf	(___fldiv@b+3)^(0+1280),c
  3432  001462  0E00               	movlw	0
  3433  001464  6E3D               	movwf	___fldiv@sign^(0+1280),c
  3434  001466                     l2126:
  3435  001466  C53E  F544         	movff	___fldiv@new_exp,___fldiv@bexp
  3436  00146A  A044               	btfss	___fldiv@bexp^(0+1280),0,c
  3437  00146C  EF3A  F00A         	goto	u1771
  3438  001470  EF3C  F00A         	goto	u1770
  3439  001474                     u1771:
  3440  001474  EF3F  F00A         	goto	l2132
  3441  001478                     u1770:
  3442  001478  8E2F               	bsf	(___fldiv@b+2)^(0+1280),7,c
  3443  00147A  EF40  F00A         	goto	l2134
  3444  00147E                     l2132:
  3445  00147E  9E2F               	bcf	(___fldiv@b+2)^(0+1280),7,c
  3446  001480                     l2134:
  3447  001480  90D8               	bcf	status,0,c
  3448  001482  3044               	rrcf	___fldiv@bexp^(0+1280),w,c
  3449  001484  6E30               	movwf	(___fldiv@b+3)^(0+1280),c
  3450  001486  EFF6  F008         	goto	l2048
  3451  00148A                     l839:
  3452  00148A  0012               	return		;funcret
  3453  00148C                     __end_of___fldiv:
  3454                           	callstack 0
  3455                           
  3456 ;; *************** function _UART_Tx *****************
  3457 ;; Defined at:
  3458 ;;		line 30 in file "UART_Libreria.c"
  3459 ;; Parameters:    Size  Location     Type
  3460 ;;  dato            1    wreg     unsigned char 
  3461 ;; Auto vars:     Size  Location     Type
  3462 ;;  dato            1    0[COMRAM] unsigned char 
  3463 ;; Return value:  Size  Location     Type
  3464 ;;                  1    wreg      void 
  3465 ;; Registers used:
  3466 ;;		wreg
  3467 ;; Tracked objects:
  3468 ;;		On entry : 0/0
  3469 ;;		On exit  : 0/0
  3470 ;;		Unchanged: 0/0
  3471 ;; Data sizes:     COMRAM   BANK5   BANK6   BANK7   BANK8   BANK9  BANK10  BANK11  BANK12  BANK13  BANK14  BANK15  BANK1
      +6  BANK17  BANK18  BANK19  BANK20  BANK21  BANK22  BANK23  BANK24  BANK25  BANK26  BANK27  BANK28  BANK29  BANK30  BANK3
      +1  BANK32  BANK33  BANK34  BANK35  BANK36  BANK37
  3472 ;;      Params:         0       0       0       0       0       0       0       0       0       0       0       0       
      +0       0       0       0       0       0       0       0       0       0       0       0       0       0       0       
      +0       0       0       0       0       0       0
  3473 ;;      Locals:         1       0       0       0       0       0       0       0       0       0       0       0       
      +0       0       0       0       0       0       0       0       0       0       0       0       0       0       0       
      +0       0       0       0       0       0       0
  3474 ;;      Temps:          0       0       0       0       0       0       0       0       0       0       0       0       
      +0       0       0       0       0       0       0       0       0       0       0       0       0       0       0       
      +0       0       0       0       0       0       0
  3475 ;;      Totals:         1       0       0       0       0       0       0       0       0       0       0       0       
      +0       0       0       0       0       0       0       0       0       0       0       0       0       0       0       
      +0       0       0       0       0       0       0
  3476 ;;Total ram usage:        1 bytes
  3477 ;; Hardware stack levels used: 1
  3478 ;; Hardware stack levels required when called: 2
  3479 ;; This function calls:
  3480 ;;		Nothing
  3481 ;; This function is called by:
  3482 ;;		_main
  3483 ;;		_putch
  3484 ;; This function uses a non-reentrant model
  3485 ;;
  3486                           
  3487                           	psect	text9
  3488  001A22                     __ptext9:
  3489                           	callstack 0
  3490  001A22                     _UART_Tx:
  3491                           	callstack 124
  3492                           
  3493                           ;incstack = 0
  3494                           ;UART_Tx@dato stored from wreg
  3495  001A22  6E01               	movwf	UART_Tx@dato^(0+1280),c
  3496  001A24                     l212:
  3497  001A24  0102               	movlb	2	; () banked
  3498  001A26  AFB2               	btfss	178,7,b	;volatile
  3499  001A28  EF18  F00D         	goto	u1541
  3500  001A2C  EF1A  F00D         	goto	u1540
  3501  001A30                     u1541:
  3502  001A30  EF12  F00D         	goto	l212
  3503  001A34                     u1540:
  3504  001A34                     
  3505                           ; BSR set to: 2
  3506                           ;UART_Libreria.c: 34:     U1TXB = dato;
  3507  001A34  0061  F404  F2A3   	movff	UART_Tx@dato,675	;volatile
  3508  001A3A                     
  3509                           ; BSR set to: 2
  3510  001A3A  0012               	return		;funcret
  3511  001A3C                     __end_of_UART_Tx:
  3512                           	callstack 0
  3513                           
  3514 ;; *************** function _UART_Init *****************
  3515 ;; Defined at:
  3516 ;;		line 5 in file "UART_Libreria.c"
  3517 ;; Parameters:    Size  Location     Type
  3518 ;;		None
  3519 ;; Auto vars:     Size  Location     Type
  3520 ;;		None
  3521 ;; Return value:  Size  Location     Type
  3522 ;;                  1    wreg      void 
  3523 ;; Registers used:
  3524 ;;		wreg, status,2
  3525 ;; Tracked objects:
  3526 ;;		On entry : 0/0
  3527 ;;		On exit  : 0/0
  3528 ;;		Unchanged: 0/0
  3529 ;; Data sizes:     COMRAM   BANK5   BANK6   BANK7   BANK8   BANK9  BANK10  BANK11  BANK12  BANK13  BANK14  BANK15  BANK1
      +6  BANK17  BANK18  BANK19  BANK20  BANK21  BANK22  BANK23  BANK24  BANK25  BANK26  BANK27  BANK28  BANK29  BANK30  BANK3
      +1  BANK32  BANK33  BANK34  BANK35  BANK36  BANK37
  3530 ;;      Params:         0       0       0       0       0       0       0       0       0       0       0       0       
      +0       0       0       0       0       0       0       0       0       0       0       0       0       0       0       
      +0       0       0       0       0       0       0
  3531 ;;      Locals:         0       0       0       0       0       0       0       0       0       0       0       0       
      +0       0       0       0       0       0       0       0       0       0       0       0       0       0       0       
      +0       0       0       0       0       0       0
  3532 ;;      Temps:          0       0       0       0       0       0       0       0       0       0       0       0       
      +0       0       0       0       0       0       0       0       0       0       0       0       0       0       0       
      +0       0       0       0       0       0       0
  3533 ;;      Totals:         0       0       0       0       0       0       0       0       0       0       0       0       
      +0       0       0       0       0       0       0       0       0       0       0       0       0       0       0       
      +0       0       0       0       0       0       0
  3534 ;;Total ram usage:        0 bytes
  3535 ;; Hardware stack levels used: 1
  3536 ;; Hardware stack levels required when called: 2
  3537 ;; This function calls:
  3538 ;;		Nothing
  3539 ;; This function is called by:
  3540 ;;		_main
  3541 ;; This function uses a non-reentrant model
  3542 ;;
  3543                           
  3544                           	psect	text10
  3545  00196E                     __ptext10:
  3546                           	callstack 0
  3547  00196E                     _UART_Init:
  3548                           	callstack 124
  3549  00196E                     
  3550                           ;UART_Libreria.c: 7:     U1CON0bits.BRGS = 0;
  3551  00196E  0102               	movlb	2	; () banked
  3552  001970  9FAB               	bcf	171,7,b	;volatile
  3553  001972                     
  3554                           ; BSR set to: 2
  3555                           ;UART_Libreria.c: 8:     U1BRG = 416;
  3556  001972  0E01               	movlw	1
  3557  001974  6FAF               	movwf	175,b	;volatile
  3558  001976  0EA0               	movlw	160
  3559  001978  6FAE               	movwf	174,b	;volatile
  3560                           
  3561                           ;UART_Libreria.c: 10:     U1CON0bits.MODE = 0;
  3562  00197A  0EF0               	movlw	-16
  3563  00197C  17AB               	andwf	171,f,b	;volatile
  3564  00197E                     
  3565                           ; BSR set to: 2
  3566                           ;UART_Libreria.c: 11:     U1CON1bits.ON = 1;
  3567  00197E  8FAC               	bsf	172,7,b	;volatile
  3568  001980                     
  3569                           ; BSR set to: 2
  3570                           ;UART_Libreria.c: 13:     U1CON0bits.TXEN = 1;
  3571  001980  8BAB               	bsf	171,5,b	;volatile
  3572  001982                     
  3573                           ; BSR set to: 2
  3574                           ;UART_Libreria.c: 15:     U1CON0bits.RXEN = 1;
  3575  001982  89AB               	bsf	171,4,b	;volatile
  3576                           
  3577                           ;UART_Libreria.c: 17:     RF0PPS = 0x20;
  3578  001984  0E20               	movlw	32
  3579  001986  6F29               	movwf	41,b	;volatile
  3580  001988                     
  3581                           ; BSR set to: 2
  3582                           ;UART_Libreria.c: 18:     TRISFbits.TRISF1 = 1;
  3583  001988  82CB               	bsf	203,1,c	;volatile
  3584  00198A                     
  3585                           ; BSR set to: 2
  3586                           ;UART_Libreria.c: 19:     ANSELFbits.ANSELF1 = 0;
  3587  00198A  0104               	movlb	4	; () banked
  3588  00198C  9328               	bcf	40,1,b	;volatile
  3589  00198E                     
  3590                           ; BSR set to: 4
  3591                           ;UART_Libreria.c: 20:     WPUFbits.WPUF1 = 0;
  3592  00198E  9329               	bcf	41,1,b	;volatile
  3593  001990                     
  3594                           ; BSR set to: 4
  3595                           ;UART_Libreria.c: 21:     INLVLFbits.INLVLF1 = 0;
  3596  001990  932C               	bcf	44,1,b	;volatile
  3597  001992                     
  3598                           ; BSR set to: 4
  3599                           ;UART_Libreria.c: 22:     SLRCONFbits.SLRF1 = 1;
  3600  001992  832B               	bsf	43,1,b	;volatile
  3601  001994                     
  3602                           ; BSR set to: 4
  3603                           ;UART_Libreria.c: 23:     ODCONFbits.ODCF1 = 0;
  3604  001994  932A               	bcf	42,1,b	;volatile
  3605                           
  3606                           ;UART_Libreria.c: 25:     U1RXPPS = 0x29;
  3607  001996  0E29               	movlw	41
  3608  001998  0102               	movlb	2	; () banked
  3609  00199A  6F72               	movwf	114,b	;volatile
  3610  00199C                     
  3611                           ; BSR set to: 2
  3612  00199C  0012               	return		;funcret
  3613  00199E                     __end_of_UART_Init:
  3614                           	callstack 0
  3615                           
  3616 ;; *************** function _PWM_ChangeDuty *****************
  3617 ;; Defined at:
  3618 ;;		line 46 in file "PWM_16.c"
  3619 ;; Parameters:    Size  Location     Type
  3620 ;;  duty            2   10[COMRAM] unsigned short 
  3621 ;; Auto vars:     Size  Location     Type
  3622 ;;		None
  3623 ;; Return value:  Size  Location     Type
  3624 ;;                  1    wreg      void 
  3625 ;; Registers used:
  3626 ;;		wreg, status,2
  3627 ;; Tracked objects:
  3628 ;;		On entry : 0/0
  3629 ;;		On exit  : 0/0
  3630 ;;		Unchanged: 0/0
  3631 ;; Data sizes:     COMRAM   BANK5   BANK6   BANK7   BANK8   BANK9  BANK10  BANK11  BANK12  BANK13  BANK14  BANK15  BANK1
      +6  BANK17  BANK18  BANK19  BANK20  BANK21  BANK22  BANK23  BANK24  BANK25  BANK26  BANK27  BANK28  BANK29  BANK30  BANK3
      +1  BANK32  BANK33  BANK34  BANK35  BANK36  BANK37
  3632 ;;      Params:         2       0       0       0       0       0       0       0       0       0       0       0       
      +0       0       0       0       0       0       0       0       0       0       0       0       0       0       0       
      +0       0       0       0       0       0       0
  3633 ;;      Locals:         0       0       0       0       0       0       0       0       0       0       0       0       
      +0       0       0       0       0       0       0       0       0       0       0       0       0       0       0       
      +0       0       0       0       0       0       0
  3634 ;;      Temps:          0       0       0       0       0       0       0       0       0       0       0       0       
      +0       0       0       0       0       0       0       0       0       0       0       0       0       0       0       
      +0       0       0       0       0       0       0
  3635 ;;      Totals:         2       0       0       0       0       0       0       0       0       0       0       0       
      +0       0       0       0       0       0       0       0       0       0       0       0       0       0       0       
      +0       0       0       0       0       0       0
  3636 ;;Total ram usage:        2 bytes
  3637 ;; Hardware stack levels used: 1
  3638 ;; Hardware stack levels required when called: 2
  3639 ;; This function calls:
  3640 ;;		Nothing
  3641 ;; This function is called by:
  3642 ;;		_main
  3643 ;; This function uses a non-reentrant model
  3644 ;;
  3645                           
  3646                           	psect	text11
  3647  001A4C                     __ptext11:
  3648                           	callstack 0
  3649  001A4C                     _PWM_ChangeDuty:
  3650                           	callstack 124
  3651  001A4C                     
  3652                           ;PWM_16.c: 49:     PWM1S1P1H = duty>>8;
  3653  001A4C  500C               	movf	(PWM_ChangeDuty@duty+1)^(0+1280),w,c
  3654  001A4E  6E6C               	movwf	108,c	;volatile
  3655  001A50                     
  3656                           ;PWM_16.c: 50:     PWM1S1P1L = duty;
  3657  001A50  0061  F42C  F46B   	movff	PWM_ChangeDuty@duty,1131	;volatile
  3658  001A56                     
  3659                           ;PWM_16.c: 51:     PWM1CONbits.LD = 1;
  3660  001A56  8469               	bsf	105,2,c	;volatile
  3661  001A58  0012               	return		;funcret
  3662  001A5A                     __end_of_PWM_ChangeDuty:
  3663                           	callstack 0
  3664                           
  3665 ;; *************** function _PWM16_Init *****************
  3666 ;; Defined at:
  3667 ;;		line 3 in file "PWM_16.c"
  3668 ;; Parameters:    Size  Location     Type
  3669 ;;		None
  3670 ;; Auto vars:     Size  Location     Type
  3671 ;;		None
  3672 ;; Return value:  Size  Location     Type
  3673 ;;                  1    wreg      void 
  3674 ;; Registers used:
  3675 ;;		wreg, status,2
  3676 ;; Tracked objects:
  3677 ;;		On entry : 0/0
  3678 ;;		On exit  : 0/0
  3679 ;;		Unchanged: 0/0
  3680 ;; Data sizes:     COMRAM   BANK5   BANK6   BANK7   BANK8   BANK9  BANK10  BANK11  BANK12  BANK13  BANK14  BANK15  BANK1
      +6  BANK17  BANK18  BANK19  BANK20  BANK21  BANK22  BANK23  BANK24  BANK25  BANK26  BANK27  BANK28  BANK29  BANK30  BANK3
      +1  BANK32  BANK33  BANK34  BANK35  BANK36  BANK37
  3681 ;;      Params:         0       0       0       0       0       0       0       0       0       0       0       0       
      +0       0       0       0       0       0       0       0       0       0       0       0       0       0       0       
      +0       0       0       0       0       0       0
  3682 ;;      Locals:         0       0       0       0       0       0       0       0       0       0       0       0       
      +0       0       0       0       0       0       0       0       0       0       0       0       0       0       0       
      +0       0       0       0       0       0       0
  3683 ;;      Temps:          0       0       0       0       0       0       0       0       0       0       0       0       
      +0       0       0       0       0       0       0       0       0       0       0       0       0       0       0       
      +0       0       0       0       0       0       0
  3684 ;;      Totals:         0       0       0       0       0       0       0       0       0       0       0       0       
      +0       0       0       0       0       0       0       0       0       0       0       0       0       0       0       
      +0       0       0       0       0       0       0
  3685 ;;Total ram usage:        0 bytes
  3686 ;; Hardware stack levels used: 1
  3687 ;; Hardware stack levels required when called: 2
  3688 ;; This function calls:
  3689 ;;		Nothing
  3690 ;; This function is called by:
  3691 ;;		_main
  3692 ;; This function uses a non-reentrant model
  3693 ;;
  3694                           
  3695                           	psect	text12
  3696  001908                     __ptext12:
  3697                           	callstack 0
  3698  001908                     _PWM16_Init:
  3699                           	callstack 124
  3700  001908                     
  3701                           ;PWM_16.c: 4:     PWM1CPRE = 99;
  3702  001908  0E63               	movlw	99
  3703  00190A  6E65               	movwf	101,c	;volatile
  3704                           
  3705                           ;PWM_16.c: 5:     PWM1CLK = 0b00010;
  3706  00190C  0E02               	movlw	2
  3707  00190E  6E61               	movwf	97,c	;volatile
  3708                           
  3709                           ;PWM_16.c: 15:     PWM1PRL = 0x31;
  3710  001910  0E31               	movlw	49
  3711  001912  6E63               	movwf	99,c	;volatile
  3712                           
  3713                           ;PWM_16.c: 18:     PWM1PRH = 0x00;
  3714  001914  0E00               	movlw	0
  3715  001916  6E64               	movwf	100,c	;volatile
  3716                           
  3717                           ;PWM_16.c: 26:     PWM1S1P1L = 0x19;
  3718  001918  0E19               	movlw	25
  3719  00191A  6E6B               	movwf	107,c	;volatile
  3720                           
  3721                           ;PWM_16.c: 29:     PWM1S1P1H = 0x00;
  3722  00191C  0E00               	movlw	0
  3723  00191E  6E6C               	movwf	108,c	;volatile
  3724                           
  3725                           ;PWM_16.c: 32:     PWM1S1P2L = 0x19;
  3726  001920  0E19               	movlw	25
  3727  001922  6E6D               	movwf	109,c	;volatile
  3728                           
  3729                           ;PWM_16.c: 35:     PWM1S1P2H = 0x00;
  3730  001924  0E00               	movlw	0
  3731  001926  6E6E               	movwf	110,c	;volatile
  3732                           
  3733                           ;PWM_16.c: 38:     PWM1S1CFGbits.MODE = 0;
  3734  001928  0EF8               	movlw	-8
  3735  00192A  166A               	andwf	106,f,c	;volatile
  3736  00192C                     
  3737                           ;PWM_16.c: 40:     PWM1CONbits.EN = 1;
  3738  00192C  8E69               	bsf	105,7,c	;volatile
  3739                           
  3740                           ;PWM_16.c: 42:     RF2PPS = 0x19;
  3741  00192E  0E19               	movlw	25
  3742  001930  0102               	movlb	2	; () banked
  3743  001932  6F2B               	movwf	43,b	;volatile
  3744                           
  3745                           ;PWM_16.c: 43:     RF5PPS = 0x18;
  3746  001934  0E18               	movlw	24
  3747  001936  6F2E               	movwf	46,b	;volatile
  3748  001938                     
  3749                           ; BSR set to: 2
  3750  001938  0012               	return		;funcret
  3751  00193A                     __end_of_PWM16_Init:
  3752                           	callstack 0
  3753                           
  3754 ;; *************** function _INT_Init *****************
  3755 ;; Defined at:
  3756 ;;		line 6 in file "Interrupcion_Libreria.c"
  3757 ;; Parameters:    Size  Location     Type
  3758 ;;		None
  3759 ;; Auto vars:     Size  Location     Type
  3760 ;;		None
  3761 ;; Return value:  Size  Location     Type
  3762 ;;                  1    wreg      void 
  3763 ;; Registers used:
  3764 ;;		wreg, status,2
  3765 ;; Tracked objects:
  3766 ;;		On entry : 0/0
  3767 ;;		On exit  : 0/0
  3768 ;;		Unchanged: 0/0
  3769 ;; Data sizes:     COMRAM   BANK5   BANK6   BANK7   BANK8   BANK9  BANK10  BANK11  BANK12  BANK13  BANK14  BANK15  BANK1
      +6  BANK17  BANK18  BANK19  BANK20  BANK21  BANK22  BANK23  BANK24  BANK25  BANK26  BANK27  BANK28  BANK29  BANK30  BANK3
      +1  BANK32  BANK33  BANK34  BANK35  BANK36  BANK37
  3770 ;;      Params:         0       0       0       0       0       0       0       0       0       0       0       0       
      +0       0       0       0       0       0       0       0       0       0       0       0       0       0       0       
      +0       0       0       0       0       0       0
  3771 ;;      Locals:         0       0       0       0       0       0       0       0       0       0       0       0       
      +0       0       0       0       0       0       0       0       0       0       0       0       0       0       0       
      +0       0       0       0       0       0       0
  3772 ;;      Temps:          0       0       0       0       0       0       0       0       0       0       0       0       
      +0       0       0       0       0       0       0       0       0       0       0       0       0       0       0       
      +0       0       0       0       0       0       0
  3773 ;;      Totals:         0       0       0       0       0       0       0       0       0       0       0       0       
      +0       0       0       0       0       0       0       0       0       0       0       0       0       0       0       
      +0       0       0       0       0       0       0
  3774 ;;Total ram usage:        0 bytes
  3775 ;; Hardware stack levels used: 1
  3776 ;; Hardware stack levels required when called: 2
  3777 ;; This function calls:
  3778 ;;		Nothing
  3779 ;; This function is called by:
  3780 ;;		_main
  3781 ;; This function uses a non-reentrant model
  3782 ;;
  3783                           
  3784                           	psect	text13
  3785  00199E                     __ptext13:
  3786                           	callstack 0
  3787  00199E                     _INT_Init:
  3788                           	callstack 124
  3789  00199E                     
  3790                           ;Interrupcion_Libreria.c: 8:     TRISBbits.TRISB0 = 1;
  3791  00199E  80C7               	bsf	199,0,c	;volatile
  3792                           
  3793                           ;Interrupcion_Libreria.c: 9:     ANSELBbits.ANSELB0 = 0;
  3794  0019A0  0104               	movlb	4	; () banked
  3795  0019A2  9108               	bcf	8,0,b	;volatile
  3796                           
  3797                           ;Interrupcion_Libreria.c: 10:     WPUBbits.WPUB0 = 0;
  3798  0019A4  9109               	bcf	9,0,b	;volatile
  3799                           
  3800                           ;Interrupcion_Libreria.c: 11:     INLVLBbits.INLVLB0 = 0;
  3801  0019A6  910C               	bcf	12,0,b	;volatile
  3802                           
  3803                           ;Interrupcion_Libreria.c: 12:     SLRCONBbits.SLRB0 = 1;
  3804  0019A8  810B               	bsf	11,0,b	;volatile
  3805                           
  3806                           ;Interrupcion_Libreria.c: 13:     ODCONBbits.ODCB0 = 0;
  3807  0019AA  910A               	bcf	10,0,b	;volatile
  3808                           
  3809                           ;Interrupcion_Libreria.c: 15:     PIE1bits.INT0IE = 1;
  3810  0019AC  809F               	bsf	159,0,c	;volatile
  3811                           
  3812                           ;Interrupcion_Libreria.c: 16:     PIR1bits.INT0IF = 0;
  3813  0019AE  90AF               	bcf	175,0,c	;volatile
  3814                           
  3815                           ;Interrupcion_Libreria.c: 17:     INTCON0bits.IPEN = 1;
  3816  0019B0  8AD6               	bsf	214,5,c	;volatile
  3817                           
  3818                           ;Interrupcion_Libreria.c: 18:     INTCON0bits.GIEH = 1;
  3819  0019B2  8ED6               	bsf	214,7,c	;volatile
  3820                           
  3821                           ;Interrupcion_Libreria.c: 19:     INTCON0bits.GIEL = 1;
  3822  0019B4  8CD6               	bsf	214,6,c	;volatile
  3823                           
  3824                           ;Interrupcion_Libreria.c: 20:     IPR1bits.INT0IP = 1;
  3825  0019B6  0103               	movlb	3	; () banked
  3826  0019B8  8163               	bsf	99,0,b	;volatile
  3827                           
  3828                           ;Interrupcion_Libreria.c: 25:     (INTCON0bits.GIE = 0);
  3829  0019BA  9ED6               	bcf	214,7,c	;volatile
  3830  0019BC                     
  3831                           ; BSR set to: 3
  3832                           ;Interrupcion_Libreria.c: 27:     IVTBASEU = 0x0;
  3833  0019BC  0E00               	movlw	0
  3834  0019BE  0104               	movlb	4	; () banked
  3835  0019C0  6F5F               	movwf	95,b	;volatile
  3836                           
  3837                           ;Interrupcion_Libreria.c: 28:     IVTBASEH = 0x02;
  3838  0019C2  0E02               	movlw	2
  3839  0019C4  6F5E               	movwf	94,b	;volatile
  3840                           
  3841                           ;Interrupcion_Libreria.c: 29:     IVTBASEL = 0x00;
  3842  0019C6  0E00               	movlw	0
  3843  0019C8  6F5D               	movwf	93,b	;volatile
  3844  0019CA                     
  3845                           ; BSR set to: 4
  3846                           ;Interrupcion_Libreria.c: 32:     (INTCON0bits.GIE = 1);
  3847  0019CA  8ED6               	bsf	214,7,c	;volatile
  3848  0019CC                     
  3849                           ; BSR set to: 4
  3850  0019CC  0012               	return		;funcret
  3851  0019CE                     __end_of_INT_Init:
  3852                           	callstack 0
  3853                           
  3854 ;; *************** function _Clock_Init *****************
  3855 ;; Defined at:
  3856 ;;		line 61 in file "Configuracion.c"
  3857 ;; Parameters:    Size  Location     Type
  3858 ;;		None
  3859 ;; Auto vars:     Size  Location     Type
  3860 ;;		None
  3861 ;; Return value:  Size  Location     Type
  3862 ;;                  1    wreg      void 
  3863 ;; Registers used:
  3864 ;;		wreg, status,2
  3865 ;; Tracked objects:
  3866 ;;		On entry : 0/0
  3867 ;;		On exit  : 0/0
  3868 ;;		Unchanged: 0/0
  3869 ;; Data sizes:     COMRAM   BANK5   BANK6   BANK7   BANK8   BANK9  BANK10  BANK11  BANK12  BANK13  BANK14  BANK15  BANK1
      +6  BANK17  BANK18  BANK19  BANK20  BANK21  BANK22  BANK23  BANK24  BANK25  BANK26  BANK27  BANK28  BANK29  BANK30  BANK3
      +1  BANK32  BANK33  BANK34  BANK35  BANK36  BANK37
  3870 ;;      Params:         0       0       0       0       0       0       0       0       0       0       0       0       
      +0       0       0       0       0       0       0       0       0       0       0       0       0       0       0       
      +0       0       0       0       0       0       0
  3871 ;;      Locals:         0       0       0       0       0       0       0       0       0       0       0       0       
      +0       0       0       0       0       0       0       0       0       0       0       0       0       0       0       
      +0       0       0       0       0       0       0
  3872 ;;      Temps:          0       0       0       0       0       0       0       0       0       0       0       0       
      +0       0       0       0       0       0       0       0       0       0       0       0       0       0       0       
      +0       0       0       0       0       0       0
  3873 ;;      Totals:         0       0       0       0       0       0       0       0       0       0       0       0       
      +0       0       0       0       0       0       0       0       0       0       0       0       0       0       0       
      +0       0       0       0       0       0       0
  3874 ;;Total ram usage:        0 bytes
  3875 ;; Hardware stack levels used: 1
  3876 ;; Hardware stack levels required when called: 2
  3877 ;; This function calls:
  3878 ;;		Nothing
  3879 ;; This function is called by:
  3880 ;;		_main
  3881 ;; This function uses a non-reentrant model
  3882 ;;
  3883                           
  3884                           	psect	text14
  3885  001A5A                     __ptext14:
  3886                           	callstack 0
  3887  001A5A                     _Clock_Init:
  3888                           	callstack 124
  3889  001A5A                     
  3890                           ;Configuracion.c: 62:     OSCCON1 = 0b01100000;
  3891  001A5A  0E60               	movlw	96
  3892  001A5C  0100               	movlb	0	; () banked
  3893  001A5E  6FAD               	movwf	173,b	;volatile
  3894  001A60                     
  3895                           ; BSR set to: 0
  3896  001A60  0012               	return		;funcret
  3897  001A62                     __end_of_Clock_Init:
  3898                           	callstack 0
  3899                           
  3900 ;; *************** function _ADC_Init *****************
  3901 ;; Defined at:
  3902 ;;		line 4 in file "ADC_Libreria.c"
  3903 ;; Parameters:    Size  Location     Type
  3904 ;;		None
  3905 ;; Auto vars:     Size  Location     Type
  3906 ;;		None
  3907 ;; Return value:  Size  Location     Type
  3908 ;;                  1    wreg      void 
  3909 ;; Registers used:
  3910 ;;		wreg, status,2
  3911 ;; Tracked objects:
  3912 ;;		On entry : 0/0
  3913 ;;		On exit  : 0/0
  3914 ;;		Unchanged: 0/0
  3915 ;; Data sizes:     COMRAM   BANK5   BANK6   BANK7   BANK8   BANK9  BANK10  BANK11  BANK12  BANK13  BANK14  BANK15  BANK1
      +6  BANK17  BANK18  BANK19  BANK20  BANK21  BANK22  BANK23  BANK24  BANK25  BANK26  BANK27  BANK28  BANK29  BANK30  BANK3
      +1  BANK32  BANK33  BANK34  BANK35  BANK36  BANK37
  3916 ;;      Params:         0       0       0       0       0       0       0       0       0       0       0       0       
      +0       0       0       0       0       0       0       0       0       0       0       0       0       0       0       
      +0       0       0       0       0       0       0
  3917 ;;      Locals:         0       0       0       0       0       0       0       0       0       0       0       0       
      +0       0       0       0       0       0       0       0       0       0       0       0       0       0       0       
      +0       0       0       0       0       0       0
  3918 ;;      Temps:          0       0       0       0       0       0       0       0       0       0       0       0       
      +0       0       0       0       0       0       0       0       0       0       0       0       0       0       0       
      +0       0       0       0       0       0       0
  3919 ;;      Totals:         0       0       0       0       0       0       0       0       0       0       0       0       
      +0       0       0       0       0       0       0       0       0       0       0       0       0       0       0       
      +0       0       0       0       0       0       0
  3920 ;;Total ram usage:        0 bytes
  3921 ;; Hardware stack levels used: 1
  3922 ;; Hardware stack levels required when called: 2
  3923 ;; This function calls:
  3924 ;;		Nothing
  3925 ;; This function is called by:
  3926 ;;		_main
  3927 ;; This function uses a non-reentrant model
  3928 ;;
  3929                           
  3930                           	psect	text15
  3931  0019FC                     __ptext15:
  3932                           	callstack 0
  3933  0019FC                     _ADC_Init:
  3934                           	callstack 124
  3935  0019FC                     
  3936                           ;ADC_Libreria.c: 5:     TRISAbits.TRISA0 = 1;
  3937  0019FC  80C6               	bsf	198,0,c	;volatile
  3938                           
  3939                           ;ADC_Libreria.c: 6:     ANSELAbits.ANSELA0 = 1;
  3940  0019FE  0104               	movlb	4	; () banked
  3941  001A00  8100               	bsf	0,0,b	;volatile
  3942                           
  3943                           ;ADC_Libreria.c: 7:     ADCON0bits.CS = 0;
  3944  001A02  0103               	movlb	3	; () banked
  3945  001A04  99F3               	bcf	243,4,b	;volatile
  3946  001A06                     
  3947                           ; BSR set to: 3
  3948                           ;ADC_Libreria.c: 8:     ADCLK = 64;
  3949  001A06  0E40               	movlw	64
  3950  001A08  6FFA               	movwf	250,b	;volatile
  3951                           
  3952                           ;ADC_Libreria.c: 9:     ADCON2bits.MD = 0;
  3953  001A0A  0EF8               	movlw	-8
  3954  001A0C  17F5               	andwf	245,f,b	;volatile
  3955                           
  3956                           ;ADC_Libreria.c: 10:     ADCON0bits.FM = 1;
  3957  001A0E  51F3               	movf	243,w,b	;volatile
  3958  001A10  0BF3               	andlw	-13
  3959  001A12  0904               	iorlw	4
  3960  001A14  6FF3               	movwf	243,b	;volatile
  3961                           
  3962                           ;ADC_Libreria.c: 11:     ADREFbits.NREF = 0;
  3963  001A16  0E0F               	movlw	-241
  3964  001A18  17F8               	andwf	248,f,b	;volatile
  3965                           
  3966                           ;ADC_Libreria.c: 12:     ADREFbits.PREF = 0;
  3967  001A1A  0EF0               	movlw	-16
  3968  001A1C  17F8               	andwf	248,f,b	;volatile
  3969  001A1E                     
  3970                           ; BSR set to: 3
  3971                           ;ADC_Libreria.c: 14:     ADCON0bits.ON = 1;
  3972  001A1E  8FF3               	bsf	243,7,b	;volatile
  3973  001A20                     
  3974                           ; BSR set to: 3
  3975  001A20  0012               	return		;funcret
  3976  001A22                     __end_of_ADC_Init:
  3977                           	callstack 0
  3978                           
  3979 ;; *************** function _ADC_Conversion *****************
  3980 ;; Defined at:
  3981 ;;		line 17 in file "ADC_Libreria.c"
  3982 ;; Parameters:    Size  Location     Type
  3983 ;;  canal           1    wreg     unsigned char 
  3984 ;; Auto vars:     Size  Location     Type
  3985 ;;  canal           1    4[COMRAM] unsigned char 
  3986 ;; Return value:  Size  Location     Type
  3987 ;;                  2    0[COMRAM] unsigned short 
  3988 ;; Registers used:
  3989 ;;		wreg, status,2, status,0
  3990 ;; Tracked objects:
  3991 ;;		On entry : 0/0
  3992 ;;		On exit  : 0/0
  3993 ;;		Unchanged: 0/0
  3994 ;; Data sizes:     COMRAM   BANK5   BANK6   BANK7   BANK8   BANK9  BANK10  BANK11  BANK12  BANK13  BANK14  BANK15  BANK1
      +6  BANK17  BANK18  BANK19  BANK20  BANK21  BANK22  BANK23  BANK24  BANK25  BANK26  BANK27  BANK28  BANK29  BANK30  BANK3
      +1  BANK32  BANK33  BANK34  BANK35  BANK36  BANK37
  3995 ;;      Params:         2       0       0       0       0       0       0       0       0       0       0       0       
      +0       0       0       0       0       0       0       0       0       0       0       0       0       0       0       
      +0       0       0       0       0       0       0
  3996 ;;      Locals:         1       0       0       0       0       0       0       0       0       0       0       0       
      +0       0       0       0       0       0       0       0       0       0       0       0       0       0       0       
      +0       0       0       0       0       0       0
  3997 ;;      Temps:          2       0       0       0       0       0       0       0       0       0       0       0       
      +0       0       0       0       0       0       0       0       0       0       0       0       0       0       0       
      +0       0       0       0       0       0       0
  3998 ;;      Totals:         5       0       0       0       0       0       0       0       0       0       0       0       
      +0       0       0       0       0       0       0       0       0       0       0       0       0       0       0       
      +0       0       0       0       0       0       0
  3999 ;;Total ram usage:        5 bytes
  4000 ;; Hardware stack levels used: 1
  4001 ;; Hardware stack levels required when called: 2
  4002 ;; This function calls:
  4003 ;;		Nothing
  4004 ;; This function is called by:
  4005 ;;		_main
  4006 ;; This function uses a non-reentrant model
  4007 ;;
  4008                           
  4009                           	psect	text16
  4010  0019CE                     __ptext16:
  4011                           	callstack 0
  4012  0019CE                     _ADC_Conversion:
  4013                           	callstack 124
  4014                           
  4015                           ; BSR set to: 3
  4016                           ;incstack = 0
  4017                           ;ADC_Conversion@canal stored from wreg
  4018  0019CE  6E05               	movwf	ADC_Conversion@canal^(0+1280),c
  4019  0019D0                     
  4020                           ;ADC_Libreria.c: 18:     ADPCH = canal;
  4021  0019D0  0061  F414  F3EC   	movff	ADC_Conversion@canal,1004	;volatile
  4022  0019D6                     
  4023                           ;ADC_Libreria.c: 19:     ADCON0bits.GO = 1;
  4024  0019D6  0103               	movlb	3	; () banked
  4025  0019D8  81F3               	bsf	243,0,b	;volatile
  4026  0019DA                     l124:
  4027                           
  4028                           ; BSR set to: 3
  4029  0019DA  B1F3               	btfsc	243,0,b	;volatile
  4030  0019DC  EFF2  F00C         	goto	u1531
  4031  0019E0  EFF4  F00C         	goto	u1530
  4032  0019E4                     u1531:
  4033  0019E4  EFED  F00C         	goto	l124
  4034  0019E8                     u1530:
  4035  0019E8                     
  4036                           ; BSR set to: 3
  4037                           ;ADC_Libreria.c: 21:     return((uint16_t)((ADRESH<<8) + ADRESL));
  4038  0019E8  51EB               	movf	235,w,b	;volatile
  4039  0019EA  6E04               	movwf	(??_ADC_Conversion+1)^(0+1280),c
  4040  0019EC  6A03               	clrf	??_ADC_Conversion^(0+1280),c
  4041  0019EE  51EA               	movf	234,w,b	;volatile
  4042  0019F0  2403               	addwf	??_ADC_Conversion^(0+1280),w,c
  4043  0019F2  6E01               	movwf	?_ADC_Conversion^(0+1280),c
  4044  0019F4  0E00               	movlw	0
  4045  0019F6  2004               	addwfc	(??_ADC_Conversion+1)^(0+1280),w,c
  4046  0019F8  6E02               	movwf	(?_ADC_Conversion+1)^(0+1280),c
  4047  0019FA                     
  4048                           ; BSR set to: 3
  4049  0019FA  0012               	return		;funcret
  4050  0019FC                     __end_of_ADC_Conversion:
  4051                           	callstack 0
  4052                           
  4053 ;; *************** function _IOC_ISR *****************
  4054 ;; Defined at:
  4055 ;;		line 51 in file "Interrupcion_Libreria.c"
  4056 ;; Parameters:    Size  Location     Type
  4057 ;;		None
  4058 ;; Auto vars:     Size  Location     Type
  4059 ;;		None
  4060 ;; Return value:  Size  Location     Type
  4061 ;;                  1    wreg      void 
  4062 ;; Registers used:
  4063 ;;		None
  4064 ;; Tracked objects:
  4065 ;;		On entry : 0/0
  4066 ;;		On exit  : 0/0
  4067 ;;		Unchanged: 0/0
  4068 ;; Data sizes:     COMRAM   BANK5   BANK6   BANK7   BANK8   BANK9  BANK10  BANK11  BANK12  BANK13  BANK14  BANK15  BANK1
      +6  BANK17  BANK18  BANK19  BANK20  BANK21  BANK22  BANK23  BANK24  BANK25  BANK26  BANK27  BANK28  BANK29  BANK30  BANK3
      +1  BANK32  BANK33  BANK34  BANK35  BANK36  BANK37
  4069 ;;      Params:         0       0       0       0       0       0       0       0       0       0       0       0       
      +0       0       0       0       0       0       0       0       0       0       0       0       0       0       0       
      +0       0       0       0       0       0       0
  4070 ;;      Locals:         0       0       0       0       0       0       0       0       0       0       0       0       
      +0       0       0       0       0       0       0       0       0       0       0       0       0       0       0       
      +0       0       0       0       0       0       0
  4071 ;;      Temps:          0       0       0       0       0       0       0       0       0       0       0       0       
      +0       0       0       0       0       0       0       0       0       0       0       0       0       0       0       
      +0       0       0       0       0       0       0
  4072 ;;      Totals:         0       0       0       0       0       0       0       0       0       0       0       0       
      +0       0       0       0       0       0       0       0       0       0       0       0       0       0       0       
      +0       0       0       0       0       0       0
  4073 ;;Total ram usage:        0 bytes
  4074 ;; Hardware stack levels used: 1
  4075 ;; Hardware stack levels required when called: 1
  4076 ;; This function calls:
  4077 ;;		Nothing
  4078 ;; This function is called by:
  4079 ;;		Interrupt level 1
  4080 ;; This function uses a non-reentrant model
  4081 ;;
  4082                           
  4083                           	psect	text17
  4084  001A64                     __ptext17:
  4085                           	callstack 0
  4086  001A64                     _IOC_ISR:
  4087                           	callstack 123
  4088  001A64  0011               	retfie		f
  4089  001A66                     __end_of_IOC_ISR:
  4090                           	callstack 0
  4091                           
  4092 ;; *************** function _INT0_ISR *****************
  4093 ;; Defined at:
  4094 ;;		line 37 in file "Interrupcion_Libreria.c"
  4095 ;; Parameters:    Size  Location     Type
  4096 ;;		None
  4097 ;; Auto vars:     Size  Location     Type
  4098 ;;		None
  4099 ;; Return value:  Size  Location     Type
  4100 ;;                  1    wreg      void 
  4101 ;; Registers used:
  4102 ;;		status,2, status,0
  4103 ;; Tracked objects:
  4104 ;;		On entry : 0/0
  4105 ;;		On exit  : 0/0
  4106 ;;		Unchanged: 0/0
  4107 ;; Data sizes:     COMRAM   BANK5   BANK6   BANK7   BANK8   BANK9  BANK10  BANK11  BANK12  BANK13  BANK14  BANK15  BANK1
      +6  BANK17  BANK18  BANK19  BANK20  BANK21  BANK22  BANK23  BANK24  BANK25  BANK26  BANK27  BANK28  BANK29  BANK30  BANK3
      +1  BANK32  BANK33  BANK34  BANK35  BANK36  BANK37
  4108 ;;      Params:         0       0       0       0       0       0       0       0       0       0       0       0       
      +0       0       0       0       0       0       0       0       0       0       0       0       0       0       0       
      +0       0       0       0       0       0       0
  4109 ;;      Locals:         0       0       0       0       0       0       0       0       0       0       0       0       
      +0       0       0       0       0       0       0       0       0       0       0       0       0       0       0       
      +0       0       0       0       0       0       0
  4110 ;;      Temps:          0       0       0       0       0       0       0       0       0       0       0       0       
      +0       0       0       0       0       0       0       0       0       0       0       0       0       0       0       
      +0       0       0       0       0       0       0
  4111 ;;      Totals:         0       0       0       0       0       0       0       0       0       0       0       0       
      +0       0       0       0       0       0       0       0       0       0       0       0       0       0       0       
      +0       0       0       0       0       0       0
  4112 ;;Total ram usage:        0 bytes
  4113 ;; Hardware stack levels used: 1
  4114 ;; This function calls:
  4115 ;;		Nothing
  4116 ;; This function is called by:
  4117 ;;		Interrupt level 2
  4118 ;; This function uses a non-reentrant model
  4119 ;;
  4120                           
  4121                           	psect	text18
  4122  00193C                     __ptext18:
  4123                           	callstack 0
  4124  00193C                     _INT0_ISR:
  4125                           	callstack 123
  4126  00193C                     
  4127                           ;Interrupcion_Libreria.c: 39:     if(PIR1bits.INT0IF == 1){
  4128  00193C  A0AF               	btfss	175,0,c	;volatile
  4129  00193E  EFA3  F00C         	goto	i2u225_41
  4130  001942  EFA5  F00C         	goto	i2u225_40
  4131  001946                     i2u225_41:
  4132  001946  EFB6  F00C         	goto	i2l173
  4133  00194A                     i2u225_40:
  4134  00194A                     
  4135                           ;Interrupcion_Libreria.c: 40:         if(PORTBbits.RB1 == 1){
  4136  00194A  A2CF               	btfss	207,1,c	;volatile
  4137  00194C  EFAA  F00C         	goto	i2u226_41
  4138  001950  EFAC  F00C         	goto	i2u226_40
  4139  001954                     i2u226_41:
  4140  001954  EFB1  F00C         	goto	i2l2544
  4141  001958                     i2u226_40:
  4142  001958                     
  4143                           ;Interrupcion_Libreria.c: 41:             contador++;
  4144  001958  0105               	movlb	5	; () banked
  4145  00195A  4B74               	infsnz	_contador& (0+255),f,b
  4146  00195C  2B75               	incf	(_contador+1)& (0+255),f,b
  4147                           
  4148                           ;Interrupcion_Libreria.c: 42:         }
  4149  00195E  EFB5  F00C         	goto	i2l2546
  4150  001962                     i2l2544:
  4151                           
  4152                           ;Interrupcion_Libreria.c: 44:             contador--;
  4153  001962  0105               	movlb	5	; () banked
  4154  001964  0774               	decf	_contador& (0+255),f,b
  4155  001966  A0D8               	btfss	status,0,c
  4156  001968  0775               	decf	(_contador+1)& (0+255),f,b
  4157  00196A                     i2l2546:
  4158                           
  4159                           ; BSR set to: 5
  4160                           ;Interrupcion_Libreria.c: 47:         PIR1bits.INT0IF = 0;
  4161  00196A  90AF               	bcf	175,0,c	;volatile
  4162  00196C                     i2l173:
  4163  00196C  0011               	retfie		f
  4164  00196E                     __end_of_INT0_ISR:
  4165                           	callstack 0
  4166                           
  4167                           ;
  4168                           ; Interrupt Vector Table @ 0x200
  4169                           ;
  4170                           
  4171                           	psect	ivt0x200
  4172  000200                     __pivt0x200:
  4173                           	callstack 0
  4174  000200                     ivt0x200_base:
  4175                           	callstack 0
  4176                           
  4177                           ; Vector 0 : SWINT
  4178  000200  0699               	dw	_IOC_ISR shr (0+2)
  4179                           
  4180                           ; Vector 1 : HLVD
  4181  000202  0699               	dw	_IOC_ISR shr (0+2)
  4182                           
  4183                           ; Vector 2 : OSF
  4184  000204  0699               	dw	_IOC_ISR shr (0+2)
  4185                           
  4186                           ; Vector 3 : CSW
  4187  000206  0699               	dw	_IOC_ISR shr (0+2)
  4188                           
  4189                           ; Vector 4 : Undefined
  4190  000208  00BE               	dw	ivt0x200_undefint shr (0+2)
  4191                           
  4192                           ; Vector 5 : CLC1
  4193  00020A  0699               	dw	_IOC_ISR shr (0+2)
  4194                           
  4195                           ; Vector 6 : Undefined
  4196  00020C  00BE               	dw	ivt0x200_undefint shr (0+2)
  4197                           
  4198                           ; Vector 7 : IOC
  4199  00020E  0699               	dw	_IOC_ISR shr (0+2)
  4200                           
  4201                           ; Vector 8 : INT0
  4202  000210  064F               	dw	_INT0_ISR shr (0+2)
  4203                           
  4204                           ; Vector 9 : ZCD
  4205  000212  0699               	dw	_IOC_ISR shr (0+2)
  4206                           
  4207                           ; Vector 10 : AD
  4208  000214  0699               	dw	_IOC_ISR shr (0+2)
  4209                           
  4210                           ; Vector 11 : ACT
  4211  000216  0699               	dw	_IOC_ISR shr (0+2)
  4212                           
  4213                           ; Vector 12 : CMP1
  4214  000218  0699               	dw	_IOC_ISR shr (0+2)
  4215                           
  4216                           ; Vector 13 : SMT1
  4217  00021A  0699               	dw	_IOC_ISR shr (0+2)
  4218                           
  4219                           ; Vector 14 : SMT1PRA
  4220  00021C  0699               	dw	_IOC_ISR shr (0+2)
  4221                           
  4222                           ; Vector 15 : SMT1PRW
  4223  00021E  0699               	dw	_IOC_ISR shr (0+2)
  4224                           
  4225                           ; Vector 16 : ADT
  4226  000220  0699               	dw	_IOC_ISR shr (0+2)
  4227                           
  4228                           ; Vector 17 : Undefined
  4229  000222  00BE               	dw	ivt0x200_undefint shr (0+2)
  4230                           
  4231                           ; Vector 18 : Undefined
  4232  000224  00BE               	dw	ivt0x200_undefint shr (0+2)
  4233                           
  4234                           ; Vector 19 : Undefined
  4235  000226  00BE               	dw	ivt0x200_undefint shr (0+2)
  4236                           
  4237                           ; Vector 20 : DMA1SCNT
  4238  000228  0699               	dw	_IOC_ISR shr (0+2)
  4239                           
  4240                           ; Vector 21 : DMA1DCNT
  4241  00022A  0699               	dw	_IOC_ISR shr (0+2)
  4242                           
  4243                           ; Vector 22 : DMA1OR
  4244  00022C  0699               	dw	_IOC_ISR shr (0+2)
  4245                           
  4246                           ; Vector 23 : DMA1A
  4247  00022E  0699               	dw	_IOC_ISR shr (0+2)
  4248                           
  4249                           ; Vector 24 : SPI1RX
  4250  000230  0699               	dw	_IOC_ISR shr (0+2)
  4251                           
  4252                           ; Vector 25 : SPI1TX
  4253  000232  0699               	dw	_IOC_ISR shr (0+2)
  4254                           
  4255                           ; Vector 26 : SPI1
  4256  000234  0699               	dw	_IOC_ISR shr (0+2)
  4257                           
  4258                           ; Vector 27 : TMR2
  4259  000236  0699               	dw	_IOC_ISR shr (0+2)
  4260                           
  4261                           ; Vector 28 : TMR1
  4262  000238  0699               	dw	_IOC_ISR shr (0+2)
  4263                           
  4264                           ; Vector 29 : TMR1G
  4265  00023A  0699               	dw	_IOC_ISR shr (0+2)
  4266                           
  4267                           ; Vector 30 : CCP1
  4268  00023C  0699               	dw	_IOC_ISR shr (0+2)
  4269                           
  4270                           ; Vector 31 : TMR0
  4271  00023E  0699               	dw	_IOC_ISR shr (0+2)
  4272                           
  4273                           ; Vector 32 : U1RX
  4274  000240  0699               	dw	_IOC_ISR shr (0+2)
  4275                           
  4276                           ; Vector 33 : U1TX
  4277  000242  0699               	dw	_IOC_ISR shr (0+2)
  4278                           
  4279                           ; Vector 34 : U1E
  4280  000244  0699               	dw	_IOC_ISR shr (0+2)
  4281                           
  4282                           ; Vector 35 : U1
  4283  000246  0699               	dw	_IOC_ISR shr (0+2)
  4284                           
  4285                           ; Vector 36 : Undefined
  4286  000248  00BE               	dw	ivt0x200_undefint shr (0+2)
  4287                           
  4288                           ; Vector 37 : Undefined
  4289  00024A  00BE               	dw	ivt0x200_undefint shr (0+2)
  4290                           
  4291                           ; Vector 38 : PWM1PR
  4292  00024C  0699               	dw	_IOC_ISR shr (0+2)
  4293                           
  4294                           ; Vector 39 : PWM1
  4295  00024E  0699               	dw	_IOC_ISR shr (0+2)
  4296                           
  4297                           ; Vector 40 : SPI2RX
  4298  000250  0699               	dw	_IOC_ISR shr (0+2)
  4299                           
  4300                           ; Vector 41 : SPI2TX
  4301  000252  0699               	dw	_IOC_ISR shr (0+2)
  4302                           
  4303                           ; Vector 42 : SPI2
  4304  000254  0699               	dw	_IOC_ISR shr (0+2)
  4305                           
  4306                           ; Vector 43 : Undefined
  4307  000256  00BE               	dw	ivt0x200_undefint shr (0+2)
  4308                           
  4309                           ; Vector 44 : TMR3
  4310  000258  0699               	dw	_IOC_ISR shr (0+2)
  4311                           
  4312                           ; Vector 45 : TMR3G
  4313  00025A  0699               	dw	_IOC_ISR shr (0+2)
  4314                           
  4315                           ; Vector 46 : PWM2PR
  4316  00025C  0699               	dw	_IOC_ISR shr (0+2)
  4317                           
  4318                           ; Vector 47 : PWM2
  4319  00025E  0699               	dw	_IOC_ISR shr (0+2)
  4320                           
  4321                           ; Vector 48 : INT1
  4322  000260  0699               	dw	_IOC_ISR shr (0+2)
  4323                           
  4324                           ; Vector 49 : CLC2
  4325  000262  0699               	dw	_IOC_ISR shr (0+2)
  4326                           
  4327                           ; Vector 50 : CWG1
  4328  000264  0699               	dw	_IOC_ISR shr (0+2)
  4329                           
  4330                           ; Vector 51 : NCO1
  4331  000266  0699               	dw	_IOC_ISR shr (0+2)
  4332                           
  4333                           ; Vector 52 : DMA2SCNT
  4334  000268  0699               	dw	_IOC_ISR shr (0+2)
  4335                           
  4336                           ; Vector 53 : DMA2DCNT
  4337  00026A  0699               	dw	_IOC_ISR shr (0+2)
  4338                           
  4339                           ; Vector 54 : DMA2OR
  4340  00026C  0699               	dw	_IOC_ISR shr (0+2)
  4341                           
  4342                           ; Vector 55 : DMA2A
  4343  00026E  0699               	dw	_IOC_ISR shr (0+2)
  4344                           
  4345                           ; Vector 56 : I2C1RX
  4346  000270  0699               	dw	_IOC_ISR shr (0+2)
  4347                           
  4348                           ; Vector 57 : I2C1TX
  4349  000272  0699               	dw	_IOC_ISR shr (0+2)
  4350                           
  4351                           ; Vector 58 : I2C1
  4352  000274  0699               	dw	_IOC_ISR shr (0+2)
  4353                           
  4354                           ; Vector 59 : I2C1E
  4355  000276  0699               	dw	_IOC_ISR shr (0+2)
  4356                           
  4357                           ; Vector 60 : Undefined
  4358  000278  00BE               	dw	ivt0x200_undefint shr (0+2)
  4359                           
  4360                           ; Vector 61 : CLC3
  4361  00027A  0699               	dw	_IOC_ISR shr (0+2)
  4362                           
  4363                           ; Vector 62 : PWM3PR
  4364  00027C  0699               	dw	_IOC_ISR shr (0+2)
  4365                           
  4366                           ; Vector 63 : PWM3
  4367  00027E  0699               	dw	_IOC_ISR shr (0+2)
  4368                           
  4369                           ; Vector 64 : U2RX
  4370  000280  0699               	dw	_IOC_ISR shr (0+2)
  4371                           
  4372                           ; Vector 65 : U2TX
  4373  000282  0699               	dw	_IOC_ISR shr (0+2)
  4374                           
  4375                           ; Vector 66 : U2E
  4376  000284  0699               	dw	_IOC_ISR shr (0+2)
  4377                           
  4378                           ; Vector 67 : U2
  4379  000286  0699               	dw	_IOC_ISR shr (0+2)
  4380                           
  4381                           ; Vector 68 : TMR5
  4382  000288  0699               	dw	_IOC_ISR shr (0+2)
  4383                           
  4384                           ; Vector 69 : TMR5G
  4385  00028A  0699               	dw	_IOC_ISR shr (0+2)
  4386                           
  4387                           ; Vector 70 : CCP2
  4388  00028C  0699               	dw	_IOC_ISR shr (0+2)
  4389                           
  4390                           ; Vector 71 : SCAN
  4391  00028E  0699               	dw	_IOC_ISR shr (0+2)
  4392                           
  4393                           ; Vector 72 : U3RX
  4394  000290  0699               	dw	_IOC_ISR shr (0+2)
  4395                           
  4396                           ; Vector 73 : U3TX
  4397  000292  0699               	dw	_IOC_ISR shr (0+2)
  4398                           
  4399                           ; Vector 74 : U3E
  4400  000294  0699               	dw	_IOC_ISR shr (0+2)
  4401                           
  4402                           ; Vector 75 : U3
  4403  000296  0699               	dw	_IOC_ISR shr (0+2)
  4404                           
  4405                           ; Vector 76 : Undefined
  4406  000298  00BE               	dw	ivt0x200_undefint shr (0+2)
  4407                           
  4408                           ; Vector 77 : CLC4
  4409  00029A  0699               	dw	_IOC_ISR shr (0+2)
  4410                           
  4411                           ; Vector 78 : Undefined
  4412  00029C  00BE               	dw	ivt0x200_undefint shr (0+2)
  4413                           
  4414                           ; Vector 79 : Undefined
  4415  00029E  00BE               	dw	ivt0x200_undefint shr (0+2)
  4416                           
  4417                           ; Vector 80 : INT2
  4418  0002A0  0699               	dw	_IOC_ISR shr (0+2)
  4419                           
  4420                           ; Vector 81 : CLC5
  4421  0002A2  0699               	dw	_IOC_ISR shr (0+2)
  4422                           
  4423                           ; Vector 82 : CWG2
  4424  0002A4  0699               	dw	_IOC_ISR shr (0+2)
  4425                           
  4426                           ; Vector 83 : NCO2
  4427  0002A6  0699               	dw	_IOC_ISR shr (0+2)
  4428                           
  4429                           ; Vector 84 : DMA3SCNT
  4430  0002A8  0699               	dw	_IOC_ISR shr (0+2)
  4431                           
  4432                           ; Vector 85 : DMA3DCNT
  4433  0002AA  0699               	dw	_IOC_ISR shr (0+2)
  4434                           
  4435                           ; Vector 86 : DMA3OR
  4436  0002AC  0699               	dw	_IOC_ISR shr (0+2)
  4437                           
  4438                           ; Vector 87 : DMA3A
  4439  0002AE  0699               	dw	_IOC_ISR shr (0+2)
  4440                           
  4441                           ; Vector 88 : CCP3
  4442  0002B0  0699               	dw	_IOC_ISR shr (0+2)
  4443                           
  4444                           ; Vector 89 : CLC6
  4445  0002B2  0699               	dw	_IOC_ISR shr (0+2)
  4446                           
  4447                           ; Vector 90 : CWG3
  4448  0002B4  0699               	dw	_IOC_ISR shr (0+2)
  4449                           
  4450                           ; Vector 91 : TMR4
  4451  0002B6  0699               	dw	_IOC_ISR shr (0+2)
  4452                           
  4453                           ; Vector 92 : DMA4SCNT
  4454  0002B8  0699               	dw	_IOC_ISR shr (0+2)
  4455                           
  4456                           ; Vector 93 : DMA4DCNT
  4457  0002BA  0699               	dw	_IOC_ISR shr (0+2)
  4458                           
  4459                           ; Vector 94 : DMA4OR
  4460  0002BC  0699               	dw	_IOC_ISR shr (0+2)
  4461                           
  4462                           ; Vector 95 : DMA4A
  4463  0002BE  0699               	dw	_IOC_ISR shr (0+2)
  4464                           
  4465                           ; Vector 96 : U4RX
  4466  0002C0  0699               	dw	_IOC_ISR shr (0+2)
  4467                           
  4468                           ; Vector 97 : U4TX
  4469  0002C2  0699               	dw	_IOC_ISR shr (0+2)
  4470                           
  4471                           ; Vector 98 : U4E
  4472  0002C4  0699               	dw	_IOC_ISR shr (0+2)
  4473                           
  4474                           ; Vector 99 : U4
  4475  0002C6  0699               	dw	_IOC_ISR shr (0+2)
  4476                           
  4477                           ; Vector 100 : DMA5SCNT
  4478  0002C8  0699               	dw	_IOC_ISR shr (0+2)
  4479                           
  4480                           ; Vector 101 : DMA5DCNT
  4481  0002CA  0699               	dw	_IOC_ISR shr (0+2)
  4482                           
  4483                           ; Vector 102 : DMA5OR
  4484  0002CC  0699               	dw	_IOC_ISR shr (0+2)
  4485                           
  4486                           ; Vector 103 : DMA5A
  4487  0002CE  0699               	dw	_IOC_ISR shr (0+2)
  4488                           
  4489                           ; Vector 104 : U5RX
  4490  0002D0  0699               	dw	_IOC_ISR shr (0+2)
  4491                           
  4492                           ; Vector 105 : U5TX
  4493  0002D2  0699               	dw	_IOC_ISR shr (0+2)
  4494                           
  4495                           ; Vector 106 : U5E
  4496  0002D4  0699               	dw	_IOC_ISR shr (0+2)
  4497                           
  4498                           ; Vector 107 : U5
  4499  0002D6  0699               	dw	_IOC_ISR shr (0+2)
  4500                           
  4501                           ; Vector 108 : DMA6SCNT
  4502  0002D8  0699               	dw	_IOC_ISR shr (0+2)
  4503                           
  4504                           ; Vector 109 : DMA6DCNT
  4505  0002DA  0699               	dw	_IOC_ISR shr (0+2)
  4506                           
  4507                           ; Vector 110 : DMA6OR
  4508  0002DC  0699               	dw	_IOC_ISR shr (0+2)
  4509                           
  4510                           ; Vector 111 : DMA6A
  4511  0002DE  0699               	dw	_IOC_ISR shr (0+2)
  4512                           
  4513                           ; Vector 112 : Undefined
  4514  0002E0  00BE               	dw	ivt0x200_undefint shr (0+2)
  4515                           
  4516                           ; Vector 113 : CLC7
  4517  0002E2  0699               	dw	_IOC_ISR shr (0+2)
  4518                           
  4519                           ; Vector 114 : CMP2
  4520  0002E4  0699               	dw	_IOC_ISR shr (0+2)
  4521                           
  4522                           ; Vector 115 : NCO3
  4523  0002E6  0699               	dw	_IOC_ISR shr (0+2)
  4524                           
  4525                           ; Vector 116 : Undefined
  4526  0002E8  00BE               	dw	ivt0x200_undefint shr (0+2)
  4527                           
  4528                           ; Vector 117 : Undefined
  4529  0002EA  00BE               	dw	ivt0x200_undefint shr (0+2)
  4530                           
  4531                           ; Vector 118 : Undefined
  4532  0002EC  00BE               	dw	ivt0x200_undefint shr (0+2)
  4533                           
  4534                           ; Vector 119 : Undefined
  4535  0002EE  00BE               	dw	ivt0x200_undefint shr (0+2)
  4536                           
  4537                           ; Vector 120 : NVM
  4538  0002F0  0699               	dw	_IOC_ISR shr (0+2)
  4539                           
  4540                           ; Vector 121 : CLC8
  4541  0002F2  0699               	dw	_IOC_ISR shr (0+2)
  4542                           
  4543                           ; Vector 122 : CRC
  4544  0002F4  0699               	dw	_IOC_ISR shr (0+2)
  4545                           
  4546                           ; Vector 123 : TMR6
  4547  0002F6  0699               	dw	_IOC_ISR shr (0+2)
  4548  0002F8                     ivt0x200_undefint:
  4549                           	callstack 0
  4550  0002F8  00FF               	reset	
  4551  0000                     
  4552                           	psect	rparam
  4553  0000                     
  4554                           	psect	idloc
  4555                           
  4556                           ;Config register IDLOC0 @ 0x200000
  4557                           ;	unspecified, using default values
  4558  200000                     	org	2097152
  4559  200000  0FFF               	dw	4095
  4560                           
  4561                           ;Config register IDLOC1 @ 0x200002
  4562                           ;	unspecified, using default values
  4563  200002                     	org	2097154
  4564  200002  0FFF               	dw	4095
  4565                           
  4566                           ;Config register IDLOC2 @ 0x200004
  4567                           ;	unspecified, using default values
  4568  200004                     	org	2097156
  4569  200004  0FFF               	dw	4095
  4570                           
  4571                           ;Config register IDLOC3 @ 0x200006
  4572                           ;	unspecified, using default values
  4573  200006                     	org	2097158
  4574  200006  0FFF               	dw	4095
  4575                           
  4576                           ;Config register IDLOC4 @ 0x200008
  4577                           ;	unspecified, using default values
  4578  200008                     	org	2097160
  4579  200008  0FFF               	dw	4095
  4580                           
  4581                           ;Config register IDLOC5 @ 0x20000A
  4582                           ;	unspecified, using default values
  4583  20000A                     	org	2097162
  4584  20000A  0FFF               	dw	4095
  4585                           
  4586                           ;Config register IDLOC6 @ 0x20000C
  4587                           ;	unspecified, using default values
  4588  20000C                     	org	2097164
  4589  20000C  0FFF               	dw	4095
  4590                           
  4591                           ;Config register IDLOC7 @ 0x20000E
  4592                           ;	unspecified, using default values
  4593  20000E                     	org	2097166
  4594  20000E  0FFF               	dw	4095
  4595                           
  4596                           ;Config register IDLOC8 @ 0x200010
  4597                           ;	unspecified, using default values
  4598  200010                     	org	2097168
  4599  200010  0FFF               	dw	4095
  4600                           
  4601                           ;Config register IDLOC9 @ 0x200012
  4602                           ;	unspecified, using default values
  4603  200012                     	org	2097170
  4604  200012  0FFF               	dw	4095
  4605                           
  4606                           ;Config register IDLOC10 @ 0x200014
  4607                           ;	unspecified, using default values
  4608  200014                     	org	2097172
  4609  200014  0FFF               	dw	4095
  4610                           
  4611                           ;Config register IDLOC11 @ 0x200016
  4612                           ;	unspecified, using default values
  4613  200016                     	org	2097174
  4614  200016  0FFF               	dw	4095
  4615                           
  4616                           ;Config register IDLOC12 @ 0x200018
  4617                           ;	unspecified, using default values
  4618  200018                     	org	2097176
  4619  200018  0FFF               	dw	4095
  4620                           
  4621                           ;Config register IDLOC13 @ 0x20001A
  4622                           ;	unspecified, using default values
  4623  20001A                     	org	2097178
  4624  20001A  0FFF               	dw	4095
  4625                           
  4626                           ;Config register IDLOC14 @ 0x20001C
  4627                           ;	unspecified, using default values
  4628  20001C                     	org	2097180
  4629  20001C  0FFF               	dw	4095
  4630                           
  4631                           ;Config register IDLOC15 @ 0x20001E
  4632                           ;	unspecified, using default values
  4633  20001E                     	org	2097182
  4634  20001E  0FFF               	dw	4095
  4635                           
  4636                           	psect	config
  4637                           
  4638                           ;Config register CONFIG1 @ 0x300000
  4639                           ;	External Oscillator Selection
  4640                           ;	FEXTOSC = OFF, Oscillator not enabled
  4641                           ;	Reset Oscillator Selection
  4642                           ;	RSTOSC = HFINTOSC_64MHZ, HFINTOSC with HFFRQ = 64 MHz and CDIV = 1:1
  4643  300000                     	org	3145728
  4644  300000  8C                 	db	140
  4645                           
  4646                           ;Config register CONFIG2 @ 0x300001
  4647                           ;	Clock out Enable bit
  4648                           ;	CLKOUTEN = OFF, CLKOUT function is disabled
  4649                           ;	PRLOCKED One-Way Set Enable bit
  4650                           ;	PR1WAY = OFF, PRLOCKED bit can be set and cleared repeatedly
  4651                           ;	Clock Switch Enable bit
  4652                           ;	CSWEN = ON, Writing to NOSC and NDIV is allowed
  4653                           ;	Fail-Safe Clock Monitor Enable bit
  4654                           ;	FCMEN = OFF, Fail-Safe Clock Monitor disabled
  4655  300001                     	org	3145729
  4656  300001  DD                 	db	221
  4657                           
  4658                           ;Config register CONFIG3 @ 0x300002
  4659                           ;	MCLR Enable bit
  4660                           ;	MCLRE = EXTMCLR, If LVP = 0, MCLR pin is MCLR; If LVP = 1, RE3 pin function is MCLR
  4661                           ;	Power-up timer selection bits
  4662                           ;	PWRTS = PWRT_OFF, PWRT is disabled
  4663                           ;	Multi-vector enable bit
  4664                           ;	MVECEN = ON, Multi-vector enabled, Vector table used for interrupts
  4665                           ;	IVTLOCK bit One-way set enable bit
  4666                           ;	IVT1WAY = ON, IVTLOCKED bit can be cleared and set only once
  4667                           ;	Low Power BOR Enable bit
  4668                           ;	LPBOREN = OFF, Low-Power BOR disabled
  4669                           ;	Brown-out Reset Enable bits
  4670                           ;	BOREN = OFF, Brown-out Reset disabled
  4671  300002                     	org	3145730
  4672  300002  3F                 	db	63
  4673                           
  4674                           ;Config register CONFIG4 @ 0x300003
  4675                           ;	Brown-out Reset Voltage Selection bits
  4676                           ;	BORV = VBOR_1P9, Brown-out Reset Voltage (VBOR) set to 1.9V
  4677                           ;	ZCD Disable bit
  4678                           ;	ZCD = OFF, ZCD module is disabled. ZCD can be enabled by setting the ZCDSEN bit of ZCD
      +                          CON
  4679                           ;	PPSLOCK bit One-Way Set Enable bit
  4680                           ;	PPS1WAY = ON, PPSLOCKED bit can be cleared and set only once; PPS registers remain loc
      +                          ked after one clear/set cycle
  4681                           ;	Stack Full/Underflow Reset Enable bit
  4682                           ;	STVREN = ON, Stack full/underflow will cause Reset
  4683                           ;	Low Voltage Programming Enable bit
  4684                           ;	LVP = ON, Low voltage programming enabled. MCLR/VPP pin function is MCLR. MCLRE config
      +                          uration bit is ignored
  4685                           ;	Extended Instruction Set Enable bit
  4686                           ;	XINST = OFF, Extended Instruction Set and Indexed Addressing Mode disabled
  4687  300003                     	org	3145731
  4688  300003  FF                 	db	255
  4689                           
  4690                           ;Config register CONFIG5 @ 0x300004
  4691                           ;	WDT Period selection bits
  4692                           ;	WDTCPS = WDTCPS_31, Divider ratio 1:65536; software control of WDTPS
  4693                           ;	WDT operating mode
  4694                           ;	WDTE = OFF, WDT Disabled; SWDTEN is ignored
  4695  300004                     	org	3145732
  4696  300004  9F                 	db	159
  4697                           
  4698                           ;Config register CONFIG6 @ 0x300005
  4699                           ;	WDT Window Select bits
  4700                           ;	WDTCWS = WDTCWS_7, window always open (100%); software control; keyed access not requi
      +                          red
  4701                           ;	WDT input clock selector
  4702                           ;	WDTCCS = SC, Software Control
  4703  300005                     	org	3145733
  4704  300005  FF                 	db	255
  4705                           
  4706                           ;Config register CONFIG7 @ 0x300006
  4707                           ;	Boot Block Size selection bits
  4708                           ;	BBSIZE = BBSIZE_512, Boot Block size is 512 words
  4709                           ;	Boot Block enable bit
  4710                           ;	BBEN = OFF, Boot block disabled
  4711                           ;	Storage Area Flash enable bit
  4712                           ;	SAFEN = OFF, SAF disabled
  4713                           ;	Background Debugger
  4714                           ;	DEBUG = ON, Background Debugger enabled
  4715  300006                     	org	3145734
  4716  300006  DF                 	db	223
  4717                           
  4718                           ;Config register CONFIG8 @ 0x300007
  4719                           ;	Boot Block Write Protection bit
  4720                           ;	WRTB = OFF, Boot Block not Write protected
  4721                           ;	Configuration Register Write Protection bit
  4722                           ;	WRTC = OFF, Configuration registers not Write protected
  4723                           ;	Data EEPROM Write Protection bit
  4724                           ;	WRTD = OFF, Data EEPROM not Write protected
  4725                           ;	SAF Write protection bit
  4726                           ;	WRTSAF = OFF, SAF not Write Protected
  4727                           ;	Application Block write protection bit
  4728                           ;	WRTAPP = OFF, Application Block not write protected
  4729  300007                     	org	3145735
  4730  300007  FF                 	db	255
  4731                           
  4732                           ; Padding undefined space
  4733  300008                     	org	3145736
  4734  300008  FF                 	db	255
  4735                           
  4736                           ;Config register CONFIG10 @ 0x300009
  4737                           ;	PFM and Data EEPROM Code Protection bit
  4738                           ;	CP = OFF, PFM and Data EEPROM code protection disabled
  4739  300009                     	org	3145737
  4740  300009  FF                 	db	255
  4741                           tosu	equ	0x4FF
  4742                           tosh	equ	0x4FE
  4743                           tosl	equ	0x4FD
  4744                           stkptr	equ	0x4FC
  4745                           pclatu	equ	0x4FB
  4746                           pclath	equ	0x4FA
  4747                           pcl	equ	0x4F9
  4748                           tblptru	equ	0x4F8
  4749                           tblptrh	equ	0x4F7
  4750                           tblptrl	equ	0x4F6
  4751                           tablat	equ	0x4F5
  4752                           prodh	equ	0x4F4
  4753                           prodl	equ	0x4F3
  4754                           indf0	equ	0x4EF
  4755                           postinc0	equ	0x4EE
  4756                           postdec0	equ	0x4ED
  4757                           preinc0	equ	0x4EC
  4758                           plusw0	equ	0x4EB
  4759                           fsr0h	equ	0x4EA
  4760                           fsr0l	equ	0x4E9
  4761                           wreg	equ	0x4E8
  4762                           indf1	equ	0x4E7
  4763                           postinc1	equ	0x4E6
  4764                           postdec1	equ	0x4E5
  4765                           preinc1	equ	0x4E4
  4766                           plusw1	equ	0x4E3
  4767                           fsr1h	equ	0x4E2
  4768                           fsr1l	equ	0x4E1
  4769                           bsr	equ	0x4E0
  4770                           indf2	equ	0x4DF
  4771                           postinc2	equ	0x4DE
  4772                           postdec2	equ	0x4DD
  4773                           preinc2	equ	0x4DC
  4774                           plusw2	equ	0x4DB
  4775                           fsr2h	equ	0x4DA
  4776                           fsr2l	equ	0x4D9
  4777                           status	equ	0x4D8

Data Sizes:
    Strings     0
    Constant    0
    Data        16
    BSS         22
    Persistent  12
    Stack       0

Auto Spaces:
    Space          Size  Autos    Used
    COMRAM           95     95      95
    BANK5           160      8      58
    BANK6           256      0       0
    BANK7           256      0       0
    BANK8           256      0       0
    BANK9           256      0       0
    BANK10          256      0       0
    BANK11          256      0       0
    BANK12          256      0       0
    BANK13          256      0       0
    BANK14          256      0       0
    BANK15          256      0       0
    BANK16          256      0       0
    BANK17          256      0       0
    BANK18          256      0       0
    BANK19          256      0       0
    BANK20          256      0       0
    BANK21          256      0       0
    BANK22          256      0       0
    BANK23          256      0       0
    BANK24          256      0       0
    BANK25          256      0       0
    BANK26          256      0       0
    BANK27          256      0       0
    BANK28          256      0       0
    BANK29          256      0       0
    BANK30          256      0       0
    BANK31          256      0       0
    BANK32          256      0       0
    BANK33          256      0       0
    BANK34          256      0       0
    BANK35          256      0       0
    BANK36          256      0       0
    BANK37          256      0       0

Pointer List with Targets:

    None.

Critical Paths under _main in COMRAM

    _main->___flsub
    ___xxtofl->_ADC_Conversion
    ___flsub->___fladd
    ___fladd->___fldiv
    ___flneg->___fladd
    ___flmul->___xxtofl
    ___fldiv->___flmul
    _PWM_ChangeDuty->___fltol

Critical Paths under _IOC_ISR in COMRAM

    None.

Critical Paths under _INT0_ISR in COMRAM

    None.

Critical Paths under _main in BANK5

    None.

Critical Paths under _IOC_ISR in BANK5

    None.

Critical Paths under _INT0_ISR in BANK5

    None.

Critical Paths under _main in BANK6

    None.

Critical Paths under _IOC_ISR in BANK6

    None.

Critical Paths under _INT0_ISR in BANK6

    None.

Critical Paths under _main in BANK7

    None.

Critical Paths under _IOC_ISR in BANK7

    None.

Critical Paths under _INT0_ISR in BANK7

    None.

Critical Paths under _main in BANK8

    None.

Critical Paths under _IOC_ISR in BANK8

    None.

Critical Paths under _INT0_ISR in BANK8

    None.

Critical Paths under _main in BANK9

    None.

Critical Paths under _IOC_ISR in BANK9

    None.

Critical Paths under _INT0_ISR in BANK9

    None.

Critical Paths under _main in BANK10

    None.

Critical Paths under _IOC_ISR in BANK10

    None.

Critical Paths under _INT0_ISR in BANK10

    None.

Critical Paths under _main in BANK11

    None.

Critical Paths under _IOC_ISR in BANK11

    None.

Critical Paths under _INT0_ISR in BANK11

    None.

Critical Paths under _main in BANK12

    None.

Critical Paths under _IOC_ISR in BANK12

    None.

Critical Paths under _INT0_ISR in BANK12

    None.

Critical Paths under _main in BANK13

    None.

Critical Paths under _IOC_ISR in BANK13

    None.

Critical Paths under _INT0_ISR in BANK13

    None.

Critical Paths under _main in BANK14

    None.

Critical Paths under _IOC_ISR in BANK14

    None.

Critical Paths under _INT0_ISR in BANK14

    None.

Critical Paths under _main in BANK15

    None.

Critical Paths under _IOC_ISR in BANK15

    None.

Critical Paths under _INT0_ISR in BANK15

    None.

Critical Paths under _main in BANK16

    None.

Critical Paths under _IOC_ISR in BANK16

    None.

Critical Paths under _INT0_ISR in BANK16

    None.

Critical Paths under _main in BANK17

    None.

Critical Paths under _IOC_ISR in BANK17

    None.

Critical Paths under _INT0_ISR in BANK17

    None.

Critical Paths under _main in BANK18

    None.

Critical Paths under _IOC_ISR in BANK18

    None.

Critical Paths under _INT0_ISR in BANK18

    None.

Critical Paths under _main in BANK19

    None.

Critical Paths under _IOC_ISR in BANK19

    None.

Critical Paths under _INT0_ISR in BANK19

    None.

Critical Paths under _main in BANK20

    None.

Critical Paths under _IOC_ISR in BANK20

    None.

Critical Paths under _INT0_ISR in BANK20

    None.

Critical Paths under _main in BANK21

    None.

Critical Paths under _IOC_ISR in BANK21

    None.

Critical Paths under _INT0_ISR in BANK21

    None.

Critical Paths under _main in BANK22

    None.

Critical Paths under _IOC_ISR in BANK22

    None.

Critical Paths under _INT0_ISR in BANK22

    None.

Critical Paths under _main in BANK23

    None.

Critical Paths under _IOC_ISR in BANK23

    None.

Critical Paths under _INT0_ISR in BANK23

    None.

Critical Paths under _main in BANK24

    None.

Critical Paths under _IOC_ISR in BANK24

    None.

Critical Paths under _INT0_ISR in BANK24

    None.

Critical Paths under _main in BANK25

    None.

Critical Paths under _IOC_ISR in BANK25

    None.

Critical Paths under _INT0_ISR in BANK25

    None.

Critical Paths under _main in BANK26

    None.

Critical Paths under _IOC_ISR in BANK26

    None.

Critical Paths under _INT0_ISR in BANK26

    None.

Critical Paths under _main in BANK27

    None.

Critical Paths under _IOC_ISR in BANK27

    None.

Critical Paths under _INT0_ISR in BANK27

    None.

Critical Paths under _main in BANK28

    None.

Critical Paths under _IOC_ISR in BANK28

    None.

Critical Paths under _INT0_ISR in BANK28

    None.

Critical Paths under _main in BANK29

    None.

Critical Paths under _IOC_ISR in BANK29

    None.

Critical Paths under _INT0_ISR in BANK29

    None.

Critical Paths under _main in BANK30

    None.

Critical Paths under _IOC_ISR in BANK30

    None.

Critical Paths under _INT0_ISR in BANK30

    None.

Critical Paths under _main in BANK31

    None.

Critical Paths under _IOC_ISR in BANK31

    None.

Critical Paths under _INT0_ISR in BANK31

    None.

Critical Paths under _main in BANK32

    None.

Critical Paths under _IOC_ISR in BANK32

    None.

Critical Paths under _INT0_ISR in BANK32

    None.

Critical Paths under _main in BANK33

    None.

Critical Paths under _IOC_ISR in BANK33

    None.

Critical Paths under _INT0_ISR in BANK33

    None.

Critical Paths under _main in BANK34

    None.

Critical Paths under _IOC_ISR in BANK34

    None.

Critical Paths under _INT0_ISR in BANK34

    None.

Critical Paths under _main in BANK35

    None.

Critical Paths under _IOC_ISR in BANK35

    None.

Critical Paths under _INT0_ISR in BANK35

    None.

Critical Paths under _main in BANK36

    None.

Critical Paths under _IOC_ISR in BANK36

    None.

Critical Paths under _INT0_ISR in BANK36

    None.

Critical Paths under _main in BANK37

    None.

Critical Paths under _IOC_ISR in BANK37

    None.

Critical Paths under _INT0_ISR in BANK37

    None.

Call Graph Tables:

 ---------------------------------------------------------------------------------
 (Depth) Function   	        Calls       Base Space   Used Autos Params    Refs
 ---------------------------------------------------------------------------------
 (0) _main                                                10    10      0   14059
                                             93 COMRAM     2     2      0
                                              0 BANK5      8     8      0
                     _ADC_Conversion
                           _ADC_Init
                         _Clock_Init
                           _INT_Init
                         _PWM16_Init
                     _PWM_ChangeDuty
                          _UART_Init
                            _UART_Tx
                            ___fladd
                            ___fldiv
                             ___flge
                            ___flmul
                            ___flneg
                            ___flsub
                            ___fltol
                           ___xxtofl
 ---------------------------------------------------------------------------------
 (1) ___xxtofl                                            14    10      4     474
                                              5 COMRAM    14    10      4
                     _ADC_Conversion (ARG)
 ---------------------------------------------------------------------------------
 (1) ___fltol                                             10     6      4     457
                                              0 COMRAM    10     6      4
 ---------------------------------------------------------------------------------
 (1) ___flsub                                              8     0      8    4193
                                             85 COMRAM     8     0      8
                            ___fladd
 ---------------------------------------------------------------------------------
 (2) ___fladd                                             16     8      8    3446
                                             69 COMRAM    16     8      8
                     _ADC_Conversion (ARG)
                            ___fldiv (ARG)
                            ___flmul (ARG)
                           ___xxtofl (ARG)
 ---------------------------------------------------------------------------------
 (1) ___flneg                                              4     0      4     121
                                             85 COMRAM     4     0      4
                            ___fladd (ARG)
                            ___fldiv (ARG)
                            ___flmul (ARG)
 ---------------------------------------------------------------------------------
 (1) ___flmul                                             25    17      8    2760
                                             19 COMRAM    25    17      8
                     _ADC_Conversion (ARG)
                           ___xxtofl (ARG)
 ---------------------------------------------------------------------------------
 (1) ___flge                                              12     4      8     638
                                              0 COMRAM    12     4      8
 ---------------------------------------------------------------------------------
 (1) ___fldiv                                             25    17      8    1703
                                             44 COMRAM    25    17      8
                     _ADC_Conversion (ARG)
                            ___flmul (ARG)
                           ___xxtofl (ARG)
 ---------------------------------------------------------------------------------
 (1) _UART_Tx                                              1     1      0      22
                                              0 COMRAM     1     1      0
 ---------------------------------------------------------------------------------
 (1) _UART_Init                                            0     0      0       0
 ---------------------------------------------------------------------------------
 (1) _PWM_ChangeDuty                                       2     0      2     120
                                             10 COMRAM     2     0      2
                            ___fltol (ARG)
 ---------------------------------------------------------------------------------
 (1) _PWM16_Init                                           0     0      0       0
 ---------------------------------------------------------------------------------
 (1) _INT_Init                                             0     0      0       0
 ---------------------------------------------------------------------------------
 (1) _Clock_Init                                           0     0      0       0
 ---------------------------------------------------------------------------------
 (1) _ADC_Init                                             0     0      0       0
 ---------------------------------------------------------------------------------
 (1) _ADC_Conversion                                       5     3      2      22
                                              0 COMRAM     5     3      2
 ---------------------------------------------------------------------------------
 Estimated maximum stack depth 2
 ---------------------------------------------------------------------------------
 (Depth) Function   	        Calls       Base Space   Used Autos Params    Refs
 ---------------------------------------------------------------------------------
 (3) _IOC_ISR                                              0     0      0       0
 ---------------------------------------------------------------------------------
 Estimated maximum stack depth 3
 ---------------------------------------------------------------------------------
 (Depth) Function   	        Calls       Base Space   Used Autos Params    Refs
 ---------------------------------------------------------------------------------
 (4) _INT0_ISR                                             0     0      0       0
 ---------------------------------------------------------------------------------
 Estimated maximum stack depth 4
 ---------------------------------------------------------------------------------

 Call Graph Graphs:

 _main (ROOT)
   _ADC_Conversion
   _ADC_Init
   _Clock_Init
   _INT_Init
   _PWM16_Init
   _PWM_ChangeDuty
     ___fltol (ARG)
   _UART_Init
   _UART_Tx
   ___fladd
     _ADC_Conversion (ARG)
     ___fldiv (ARG)
       _ADC_Conversion (ARG)
       ___flmul (ARG)
         _ADC_Conversion (ARG)
         ___xxtofl (ARG)
           _ADC_Conversion (ARG)
       ___xxtofl (ARG)
     ___flmul (ARG)
     ___xxtofl (ARG)
   ___fldiv
   ___flge
   ___flmul
   ___flneg
     ___fladd (ARG)
     ___fldiv (ARG)
     ___flmul (ARG)
   ___flsub
     ___fladd
   ___fltol
   ___xxtofl

 _IOC_ISR (ROOT)

 _INT0_ISR (ROOT)

 Address spaces:
Name               Size   Autos  Total    Cost      Usage
BIGRAM            20FF      0       0      71        0.0%
EEDATA             400      0       0       0        0.0%
BITBANK37          100      0       0      70        0.0%
BANK37             100      0       0      68        0.0%
BITBANK36          100      0       0      66        0.0%
BANK36             100      0       0      67        0.0%
BITBANK35          100      0       0      64        0.0%
BANK35             100      0       0      65        0.0%
BITBANK34          100      0       0      62        0.0%
BANK34             100      0       0      63        0.0%
BITBANK33          100      0       0      60        0.0%
BANK33             100      0       0      61        0.0%
BITBANK32          100      0       0      58        0.0%
BANK32             100      0       0      59        0.0%
BITBANK31          100      0       0      56        0.0%
BANK31             100      0       0      57        0.0%
BITBANK30          100      0       0      54        0.0%
BANK30             100      0       0      55        0.0%
BITBANK29          100      0       0      52        0.0%
BANK29             100      0       0      53        0.0%
BITBANK28          100      0       0      50        0.0%
BANK28             100      0       0      51        0.0%
BITBANK27          100      0       0      48        0.0%
BANK27             100      0       0      49        0.0%
BITBANK26          100      0       0      46        0.0%
BANK26             100      0       0      47        0.0%
BITBANK25          100      0       0      44        0.0%
BANK25             100      0       0      45        0.0%
BITBANK24          100      0       0      42        0.0%
BANK24             100      0       0      43        0.0%
BITBANK23          100      0       0      40        0.0%
BANK23             100      0       0      41        0.0%
BITBANK22          100      0       0      38        0.0%
BANK22             100      0       0      39        0.0%
BITBANK21          100      0       0      36        0.0%
BANK21             100      0       0      37        0.0%
BITBANK20          100      0       0      34        0.0%
BANK20             100      0       0      35        0.0%
BITBANK19          100      0       0      32        0.0%
BANK19             100      0       0      33        0.0%
BITBANK18          100      0       0      30        0.0%
BANK18             100      0       0      31        0.0%
BITBANK17          100      0       0      28        0.0%
BANK17             100      0       0      29        0.0%
BITBANK16          100      0       0      26        0.0%
BANK16             100      0       0      27        0.0%
BITBANK15          100      0       0      24        0.0%
BANK15             100      0       0      25        0.0%
BITBANK14          100      0       0      22        0.0%
BANK14             100      0       0      23        0.0%
BITBANK13          100      0       0      20        0.0%
BANK13             100      0       0      21        0.0%
BITBANK12          100      0       0      18        0.0%
BANK12             100      0       0      19        0.0%
BITBANK11          100      0       0      16        0.0%
BANK11             100      0       0      17        0.0%
BITBANK10          100      0       0      14        0.0%
BANK10             100      0       0      15        0.0%
BITBANK9           100      0       0      12        0.0%
BANK9              100      0       0      13        0.0%
BITBANK8           100      0       0      10        0.0%
BANK8              100      0       0      11        0.0%
BITBANK7           100      0       0       8        0.0%
BANK7              100      0       0       9        0.0%
BITBANK6           100      0       0       6        0.0%
BANK6              100      0       0       7        0.0%
BITBANK5            A0      0       0       4        0.0%
BANK5               A0      8      3A       5       36.2%
BITCOMRAM           5F      0       0       0        0.0%
COMRAM              5F     5F      5F       1      100.0%
BITSFR_5             0      0       0     200        0.0%
SFR_5                0      0       0     200        0.0%
BITSFR_4             0      0       0     200        0.0%
SFR_4                0      0       0     200        0.0%
BITSFR_3             0      0       0     200        0.0%
SFR_3                0      0       0     200        0.0%
BITSFR_2             0      0       0     200        0.0%
SFR_2                0      0       0     200        0.0%
BITSFR_1             0      0       0     200        0.0%
SFR_1                0      0       0     200        0.0%
BITSFR               0      0       0     200        0.0%
SFR                  0      0       0     200        0.0%
STACK                0      0       0       2        0.0%
NULL                 0      0       0       0        0.0%
ABS                  0      0      99      69        0.0%
DATA                 0      0      99       3        0.0%
CODE                 0      0       0       0        0.0%


Microchip Technology PIC18 Macro Assembler V2.32 build 20210201212658 
Symbol Table                                                                                   Thu Oct 28 20:29:06 2021

                      _D 056C                        _I 0570                        _P 0586  
                      _T 0576             ___fldiv@aexp 0545             ___fldiv@bexp 0544  
           ___fldiv@sign 053D                       l91 0568                       l95 071A  
                    l121 1A20                      l124 19DA                      l132 1A60  
                    l212 1A24                      l127 19FA                      l215 1A3A  
                    l209 199C                      l251 1938                      l165 19CC  
                    l254 1A58                      l522 1802                      l531 1906  
                    l527 1848                      l802 0AEC                      l554 1744  
                    l811 0BBC                      l812 0BAA                      l912 14E2  
                    l841 12EA                      l850 1330                      l827 188E  
                    l915 163E                      l852 13A8                      l844 12AE  
                    l853 1396                      l926 15D6                      l839 148A  
                    l871 0D68                      l919 157A                      l880 0FFA  
                    l881 0FE8                      l785 09D2                      l794 0CA2  
                    l786 09C0                      l875 10F0                      l787 0986  
                    l878 0F82                      l888 10B2                      _TAU 0582  
                    _U_t 0560                      wreg 0004E8             ___flmul@aexp 0525  
           ___flmul@bexp 0526             ___flmul@sign 0520             ___flmul@temp 052B  
           ___flmul@prod 0527          __end_of_IOC_ISR 1A66             ___fltol@exp1 050A  
                   l2000 1A50                     l2002 1A56                     l2010 110E  
                   l2100 134E                     l2012 111E                     l2020 1148  
                   l2004 10F2                     l2110 13B8                     l2102 1352  
                   l2030 1174                     l2022 1158                     l2014 112E  
                   l2006 10FE                     l2120 141A                     l2112 13C4  
                   l2104 1360                     l2032 1184                     l2040 11AE  
                   l2024 115E                     l2016 113E                     l2008 110C  
                   l2200 0E2E                     l2130 1478                     l2122 1430  
                   l2114 13D2                     l2106 138E                     l2050 11F0  
                   l2042 11BE                     l2034 1194                     l2026 1164  
                   l2018 1140                     l2210 0E8C                     l2202 0E3E  
                   l2132 147E                     l2124 144A                     l2116 13FC  
                   l2044 11D4                     l2036 11A4                     l2028 1172  
                   l2220 0F3C                     l2212 0EAC                     l2204 0E4E  
                   l2300 18D0                     l2134 1480                     l2126 1466  
                   l2118 1400                     l2070 1272                     l2062 1228  
                   l2046 11E4                     l2054 1204                     l2038 11A6  
                   l2230 0F92                     l2222 0F4A                     l2214 0EBC  
                   l2206 0E5E                     l2150 0CD0                     l2142 0CA4  
                   l2302 18E6                     l2310 1656                     l2128 146A  
                   l2080 12B8                     l2072 127A                     l2064 1242  
                   l2056 1214                     l2048 11EC                     l2232 0FA0  
                   l2224 0F68                     l2216 0EDC                     l2208 0E7C  
                   l2160 0D0C                     l2152 0CE0                     l2144 0CB0  
                   l2304 18F6                     l2320 16A6                     l2400 02FE  
                   l2090 1310                     l2082 12D6                     l2074 128A  
                   l2066 1252                     l2058 1214                     l2242 100A  
                   l2250 1052                     l2234 0FA4                     l2226 0F72  
                   l2218 0F06                     l2170 0D42                     l2162 0D12  
                   l2154 0CF0                     l2146 0CBE                     l2330 16D0  
                   l2322 16AA                     l2314 166A                     l2410 030C  
                   l2402 0302                     l2092 1316                     l2084 12D8  
                   l2076 129E                     l2068 1262                     l2260 10C6  
                   l2252 106C                     l2244 1016                     l2236 0FB2  
                   l2228 0F80                     l2172 0D52                     l2164 0D20  
                   l2156 0CF6                     l2148 0CC0                     l2340 16F8  
                   l2332 16DA                     l2324 16B8                     l2316 1694  
                   l2308 1640                     l2500 061C                     l2420 0316  
                   l2412 030E                     l2404 0304                     l2094 1320  
                   l2086 12E8                     l2078 12AC                     l2262 10D4  
                   l2254 1080                     l2246 1024                     l2238 0FE0  
                   l2190 0DDC                     l2182 0D9C                     l2174 0D58  
                   l2166 0D22                     l2158 0D06                     l2342 1704  
                   l2334 16E4                     l2318 1696                     l2510 06CA  
                   l2502 0650                     l2430 0320                     l2422 0318  
                   l2414 0310                     l2406 0308                     l2096 132E  
                   l2088 12FA                     l2280 1774                     l2264 10D6  
                   l2256 109A                     l2248 104E                     l2192 0DF8  
                   l2184 0DAC                     l2176 0D78                     l2168 0D32  
                   l1800 08F8                     l2272 184A                     l2344 1714  
                   l2360 1508                     l2352 148E                     l2520 0716  
                   l2512 06CC                     l2504 0684                     l2440 032A  
                   l2432 0322                     l2424 031A                     l2416 0312  
                   l2408 030A                     l2098 1340                     l2290 17E2  
                   l2282 1784                     l2258 10B6                     l2266 10DC  
                   l2194 0E04                     l2186 0DB6                     l2178 0D88  
                   l1810 090C                     l1802 08FC                     l2274 185A  
                   l2346 1724                     l2370 1562                     l2354 149E  
                   l2530 077E                     l2522 0718                     l2506 0694  
                   l2514 06D2                     l2450 0334                     l2442 032C  
                   l2434 0324                     l2426 031C                     l2418 0314  
                   l2292 17F0                     l2284 17B2                     l2268 10E0  
                   l2196 0E10                     l2188 0DD0                     l1900 0B6A  
                   l1820 0920                     l1812 0910                     l1804 0900  
                   l2348 1734                     l2380 15C6                     l2372 1564  
                   l2364 151C                     l2356 14AC                     l2532 079E  
                   l2524 074C                     l2516 06E0                     l2508 06C8  
                   l2460 033E                     l2452 0336                     l2444 032E  
                   l2436 0326                     l2428 031E                     l2294 1840  
                   l2286 17C2                     l2278 1746                     l2198 0E1E  
                   l1910 0BA2                     l1902 0B6C                     l1830 097E  
                   l1814 0914                     l1806 0904                     l1822 0924  
                   l1750 0800                     l2390 161E                     l2382 15E4  
                   l2374 1570                     l2366 1524                     l2358 14F2  
                   l2534 07A4                     l2526 075E                     l2518 0714  
                   l2470 0348                     l2462 0340                     l2454 0338  
                   l2446 0330                     l2438 0328                     l2296 1846  
                   l2288 17D0                     l1920 0C20                     l1904 0B7A  
                   l1840 09B4                     l1832 0994                     l1824 0928  
                   l1816 0918                     l1808 0908                     l1752 0810  
                   l1760 083A                     l1744 07E4                     l2392 162C  
                   l2384 15E6                     l2376 15AC                     l2368 1530  
                   l2536 07C4                     l2528 0764                     l2480 0358  
                   l2472 034A                     l2464 0342                     l2456 033A  
                   l2448 0332                     l1930 0C66                     l1914 0BCC  
                   l1922 0C22                     l1906 0B7E                     l1850 0A04  
                   l1842 09BE                     l1834 09A0                     l1826 0952  
                   l1818 091C                     l1770 086A                     l1762 084A  
                   l1754 0820                     l1746 07F0                     l2394 162E  
                   l2386 15EA                     l2378 15B8                     l2490 04A4  
                   l2482 035C                     l2474 034C                     l2466 0344  
                   l2458 033C                     l1940 0C90                     l1932 0C74  
                   l1924 0C32                     l1916 0BD8                     l1908 0B8C  
                   l1860 0A40                     l1852 0A14                     l1844 09E0  
                   l1836 09A4                     l1828 096E                     l1780 08AA  
                   l1772 0878                     l1764 0850                     l1756 0830  
                   l1748 07FE                     l2388 160E                     l2484 03F0  
                   l2476 0350                     l2468 0346                     l1950 192C  
                   l1942 0C92                     l1934 0C7A                     l1926 0C42  
                   l1918 0BE6                     l1870 0A86                     l1862 0A4E  
                   l1854 0A22                     l1846 09F0                     l1838 09B2  
                   l1790 08E4                     l1782 08AC                     l1774 087A  
                   l1766 0862                     l1758 0832                     l2494 04DA  
                   l2486 043C                     l2478 0354                     l2398 02FE  
                   l1960 1982                     l1952 196E                     l1936 0C7C  
                   l1928 0C62                     l1880 0B02                     l1872 0ABA  
                   l1864 0A50                     l1856 0A30                     l1792 08E8  
                   l1776 088A                     l1784 08B4                     l1768 0864  
                   l2488 0470                     l1946 1A5A                     l1970 1992  
                   l1962 1988                     l1954 1972                     l1938 0C82  
                   l1890 0B3E                     l1882 0B12                     l1874 0ABC  
                   l1866 0A5A                     l1858 0A3C                     l1794 08EC  
                   l1786 08C4                     l1778 089A                     l2498 0510  
                   l1980 199E                     l1948 1908                     l1972 1994  
                   l1964 198A                     l1956 197E                     l1892 0B40  
                   l1876 0ACC                     l1868 0A60                     l1796 08F0  
                   l1788 08D6                     l1990 19E8                     l1974 19FC  
                   l1982 19BC                     l1966 198E                     l1958 1980  
                   l1894 0B4E                     l1886 0B26                     l1878 0ADC  
                   l1798 08F4                     l1976 1A06                     l1984 19CA  
                   l1968 1990                     l1896 0B56                     l1888 0B30  
                   l1986 19D0                     l1978 1A1E                     l1994 1A24  
                   l1898 0B5A                     l1988 19D6                     l1996 1A34  
                   l1998 1A4C                     u2000 17F0                     u1200 089A  
                   u2001 17EC                     u1201 0896                     u2010 1840  
                   u1210 08D6                     u2011 183C                     u1211 08D2  
                   u2020 18E6                     u1300 09F0                     u1220 08E4  
                   u1140 07FE                     u2100 149E                     u2021 18E2  
                   u1301 09EC                     u1221 08E0                     u1141 07FA  
                   u2101 149A                     u1310 0A22                     u1230 0952  
                   u1150 0810                     u2030 1656                     u2110 14AC  
                   u1311 0A1E                     u1231 094E                     u1151 080C  
                   u2031 1652                     u2111 14A8                     u1400 0B6A  
                   u1320 0A30                     u1240 096A                     u1160 0820  
                   u2040 168A                     u2120 1508                     u2200 04D6  
                   u1401 0B66                     u1321 0A2C                     u1241 0964  
                   u1161 081C                     u2121 1504                     u2201 04D2  
                   u1410 0B7A                     u1330 0A4E                     u1250 096C  
                   u1170 0862                     u2050 16B8                     u2130 155E  
                   u2210 050C                     u1411 0B76                     u1331 0A4A  
                   u1171 085E                     u2051 16B4                     u2131 155A  
                   u2211 0508                     u1500 0C62                     u1420 0B8C  
                   u1340 0A86                     u1260 0994                     u1180 0878  
                   u2060 16CC                     u2140 15A8                     u2220 0694  
                   u1501 0C5E                     u1421 0B88                     u1341 0A82  
                   u1261 0990                     u1181 0874                     u2061 16C8  
                   u2045 1680                     u2141 15A4                     u2221 0690  
                   u1510 0C74                     u1430 0BA2                     u1350 0ACC  
                   u1270 09B2                     u1190 088A                     u2070 16F4  
                   u2150 15C6                     u2230 06E0                     u1511 0C70  
                   u1431 0B9E                     u1351 0AC8                     u1271 09AE  
                   u1191 0886                     u2071 16F0                     u2151 15C2  
                   u2231 06DC                     u1600 1194                     u1520 0C90  
                   u1440 0BB8                     u1360 0B02                     u1280 09D2  
                   u2080 1714                     u2160 15D6                     u2240 074C  
                   u1601 1190                     u1521 0C8C                     u1441 0BB4  
                   u1361 0AFE                     u1281 09CE                     u2081 1710  
                   u2161 15D2                     u2241 0748                     u1530 19E8  
                   u1610 11D4                     u1450 0BCC                     u1370 0B12  
                   u1290 09E0                     u2090 1724                     u2170 15E4  
                   u1531 19E4                     u1611 11D0                     u1451 0BC8  
                   u1371 0B0E                     u1291 09DC                     u2091 1720  
                   u2171 15E0                     u1540 1A34                     u1700 1360  
                   u1620 1214                     u1460 0BE6                     u1380 0B3E  
                   u2180 161E                     u1541 1A30                     u1701 135C  
                   u1621 1210                     u1461 0BE2                     u1381 0B3A  
                   u2181 161A                     u1710 138E                     u1630 128A  
                   u1550 110C                     u1470 0C20                     u1390 0B4E  
                   u2190 162C                     u1711 138A                     u1631 1286  
                   u1551 1108                     u1471 0C1C                     u1391 0B4A  
                   u2191 1628                     u1720 13A4                     u1640 12AC  
                   u1560 111E                     u1800 0CE0                     u1480 0C32  
                   u1721 13A0                     u1641 12A8                     u1561 111A  
                   u1801 0CDC                     u1481 0C2E                     u1730 13B8  
                   u1650 12D6                     u1570 112E                     u1810 0D20  
                   u1490 0C42                     u1731 13B4                     u1651 12D2  
                   u1571 112A                     u1811 0D1C                     u1491 0C3E  
                   u1740 13D2                     u1660 12FA                     u1580 1172  
                   u1900 0FE0                     u1820 0D32                     u1741 13CE  
                   u1661 12F6                     u1581 116E                     u1901 0FDC  
                   u1821 0D2E                     u2277 07CE                     u1750 141A  
                   u1670 1310                     u1590 1184                     u1910 0FF6  
                   u1830 0D42                     u1751 1416                     u1671 130C  
                   u1591 1180                     u1911 0FF2                     u1831 0D3E  
                   u1760 144A                     u1680 132E                     u1920 100A  
                   u1840 0D78                     u1761 1446                     u1681 132A  
                   u1921 1006                     u1841 0D74                     u1770 1478  
                   u1690 134E                     u1930 1024                     u1850 0D88  
                   u1771 1474                     u1691 134A                     u1931 1020  
                   u1851 0D84                     u1940 106C                     u1860 0F26  
                   u1780 0CBE                     u1941 1068                     u1781 0CBA  
                   u1950 109A                     u1870 0F80                     u1790 0CD0  
                   u1951 1096                     u1871 0F7C                     u1791 0CCC  
                   u1960 10D4                     u1880 0FA0                     u1961 10D0  
                   u1881 0F9C                     u1865 0F1C                     u1970 1774  
                   u1890 0FB2                     u1971 1770                     u1891 0FAE  
                   u1980 17B2                     u1981 17AE                     u1990 17D0  
                   u1991 17CC          __end_of_UART_Tx 1A3C                     _main 02FE  
                   fsr1l 0004E1         __end_of_ADC_Init 1A22                     prodh 0004F4  
                   prodl 0004F3                     start 02FA          ___fldiv@new_exp 053E  
           ___param_bank 000000               _Clock_Init 1A5A              ?_PWM16_Init 0501  
       __end_of_INT0_ISR 196E            ___fltol@sign1 0509          __end_of___fladd 0CA4  
                  ?_main 0501                    _ADCLK 0003FA                    _ADPCH 0003EC  
        __end_of___fldiv 148C          __end_of___flneg 1908          __end_of___flmul 10F2  
        __end_of___flsub 1890          __end_of___fltol 1746                    _U1BRG 0002AE  
                  _U1RXB 0002A1                    _ERROR 058E                    i1l178 1A64  
                  _U1TXB 0002A3                    i2l173 196C                    _E_ANT 0568  
       __end_of_INT_Init 19CE                    _Y_ANT 0564       __size_of_UART_Init 0030  
         _PWM_ChangeDuty 1A4C                    tablat 0004F5                    status 0004D8  
        __initialization 1890             __end_of_main 07E4                   ??_main 055E  
          __activetblptr 000000                ??_IOC_ISR 0501   __end_of_PWM_ChangeDuty 1A5A  
              ??_UART_Tx 0501                   _ADRESH 0003EB                   _ADRESL 0003EA  
                 _RF0PPS 000229                   _RF2PPS 00022B                   _RF5PPS 00022E  
                 i2l2540 194A                   i2l2542 1958                   i2l2544 1962  
                 i2l2546 196A                   i2l2538 193C      __size_of_PWM16_Init 0032  
       __end_of___xxtofl 1640        __end_of_UART_Init 199E                   ___flge 1746  
              ??___fladd 054E                ??___fldiv 0535                ??___flneg 055A  
              ??___flmul 051C                ??___flsub 055E                ??___fltol 0505  
                 _angulo 058A              ?_Clock_Init 0501                   clear_0 18B6  
           ivt0x200_base 0200                   isa$std 000001                ?_ADC_Init 0501  
        ?_PWM_ChangeDuty 050B                   tblptrh 0004F7                   tblptrl 0004F6  
                 tblptru 0004F8               ___flge@ff1 0501               ___flge@ff2 0505  
           ___xxtofl@arg 0510             ___xxtofl@exp 050F             ___xxtofl@val 0506  
             __accesstop 0560  __end_of__initialization 18CA                ?_INT0_ISR 0501  
             ___flneg@f1 0556            ___rparam_used 000001               ___fltol@f1 0501  
              ?_INT_Init 0501           __pcstackCOMRAM 0501             __pidataBANK5 1A3C  
             ??_ADC_Init 0501               __pbssBANK5 0560      __size_of_Clock_Init 0008  
             ??_INT0_ISR 0501  __size_of_ADC_Conversion 002E                  IVTBASEH 00045E  
                IVTBASEL 00045D                  IVTBASEU 00045F               __pivt0x200 0200  
             ??_INT_Init 0501                  ?___flge 0501             ??_PWM16_Init 0501  
                _IOC_ISR 1A64                  _U1RXPPS 000272                ?___xxtofl 0506  
                _LIM_MAX 057A                  _LIM_MIN 057E                  _OSCCON1 0000AD  
                _PWM1CLK 000461                  _PWM1PRH 000464                  _PWM1PRL 000463  
                _UART_Tx 1A22       __end_of_PWM16_Init 193A                _ADREFbits 0003F8  
                __Hparam 0000                  __Lparam 0000           main@referencia 0596  
        __size_of___flge 0104                  ___fladd 07E4                  ___fldiv 10F2  
                ___flneg 18D0                  ___flmul 0CA4                  ___flsub 184A  
                ___fltol 1640                  __pcinit 1890                  __ramtop 2600  
                __ptext0 02FE                  __ptext1 148C                  __ptext2 1640  
                __ptext3 184A                  __ptext4 07E4                  __ptext5 18D0  
                __ptext6 0CA4                  __ptext7 1746                  __ptext8 10F2  
                __ptext9 1A22              UART_Tx@dato 0501               ??___xxtofl 050A  
   end_of_initialization 18CA                  postdec1 0004E5                _PWM1S1P1H 00046C  
              _PWM1S1P2H 00046E                _PWM1S1P1L 00046B                _PWM1S1P2L 00046D  
                postinc0 0004EE             ??_Clock_Init 0501         ??_PWM_ChangeDuty 050D  
              _UART_Init 196E                _PORTBbits 0004CF              ___fladd@grs 0555  
          ___xxtofl@sign 050E                _TRISAbits 0004C6                _TRISBbits 0004C7  
              _TRISDbits 0004C9         ivt0x200_undefint 02F8                _TRISFbits 0004CB  
            ___fldiv@grs 0540              ___fldiv@rem 0539        __size_of_ADC_Init 0026  
            ___flmul@grs 0521       __end_of_Clock_Init 1A62           _ADC_Conversion 19CE  
      __size_of_INT0_ISR 0032        __size_of_INT_Init 0030           __end_of___flge 184A  
             ?_UART_Init 0501            _PWM1S1CFGbits 00046A      ADC_Conversion@canal 0505  
    start_initialization 1890   __end_of_ADC_Conversion 19FC                 ??___flge 0509  
            __pdataBANK5 0576                ___fladd@a 054A                ___fladd@b 0546  
              ___fldiv@a 0531                ___fldiv@b 052D                 ?_IOC_ISR 0501  
              ___flmul@a 0518                ___flmul@b 0514                ___flsub@a 055A  
              ___flsub@b 0556            __pcstackBANK5 0592                 ?_UART_Tx 0501  
      __size_of___xxtofl 01B4          ?_ADC_Conversion 0501                __pnvBANK5 0586  
              _main$2053 0592                 ?___fladd 0546                 ?___fldiv 052D  
               ?___flneg 0556                 ?___flmul 0514                 ?___flsub 0556  
               ?___fltol 0501              ??_UART_Init 0501                 _ADC_Init 19FC  
            _U1ERRIRbits 0002B2                 _INT0_ISR 193C                 _LATDbits 0004C1  
               _LATFbits 0004C3                 _IPR1bits 000363                 _PIE1bits 00049F  
               _IVTBASEH 00045E                 _IVTBASEL 00045D                 _IVTBASEU 00045F  
               i2u225_40 194A                 i2u225_41 1946                 i2u226_40 1958  
               i2u226_41 1954                 _PIR1bits 0004AF                 _INT_Init 199E  
               _PWM1CPRE 000465               _ADCON0bits 0003F3               _ADCON2bits 0003F5  
               _WPUBbits 000409                 _WPUDbits 000419                 _WPUFbits 000429  
       __size_of_IOC_ISR 0002              _INTCON0bits 0004D6                copy_data0 18A4  
       __size_of_UART_Tx 001A                 __Hrparam 0000                 __Lrparam 0000  
       __size_of___fladd 04C0         __size_of___fldiv 039A         __size_of___flneg 0038  
       __size_of___flmul 044E         __size_of___flsub 0046         __size_of___fltol 0106  
             _ANSELAbits 000400               _ANSELBbits 000408               _ANSELDbits 000418  
             _ANSELFbits 000428                 ___xxtofl 148C                 __ptext10 196E  
               __ptext11 1A4C                 __ptext12 1908                 __ptext13 199E  
               __ptext14 1A5A                 __ptext15 19FC                 __ptext16 19CE  
               __ptext17 1A64                 __ptext18 193C               _U1CON0bits 0002AB  
             _U1CON1bits 0002AC                 _contador 0574            __size_of_main 04E6  
               isa$xinst 000000               _ODCONBbits 00040A               _ODCONDbits 00041A  
             _ODCONFbits 00042A               _INLVLBbits 00040C               _INLVLDbits 00041C  
             _INLVLFbits 00042C              _PWM1CONbits 000469         ??_ADC_Conversion 0503  
__size_of_PWM_ChangeDuty 000E                 intlevel1 0000                 intlevel2 0000  
            _SLRCONBbits 00040B              _SLRCONDbits 00041B              _SLRCONFbits 00042B  
             _PWM16_Init 1908       PWM_ChangeDuty@duty 050B            ___fladd@signs 0552  
           ___fladd@aexp 0553             ___fladd@bexp 0554  
